(lp0
(F10.649782792051502
F8.211745633066379
tp1
a(F29.302478124999997
F3.532008829526603
tp2
a(F31.652857150806902
F5.24812701352251
tp3
a(F2.168278404980523
F20.855153120976563
tp4
a(F5.3987452733955195
F16.124871033864718
tp5
a(F1.8024120387193074
F32.57543930698497
tp6
a(F6.4214672579298835
F32.612859797917984
tp7
a(F18.10758222222222
F22.39969829074107
tp8
a(F2.080754048423329
F21.40880241827108
tp9
a(F1.1472510486227043
F22.08329194590139
tp10
a(F33.104497435897436
F16.88765951952276
tp11
a(F21.453438095238095
F11.018047080918526
tp12
a(F34.684927083333335
F22.2992390233092
tp13
a(F34.194699122469075
F15.530266046354717
tp14
a(F37.8573224385961
F8.318724246462807
tp15
a(F34.15098516391482
F30.04368771860997
tp16
a(F38.93557200083255
F25.846937434493817
tp17
a(F18.09314111111111
F25.174792705879856
tp18
a(F34.64581237919493
F5.090299760146688
tp19
a(F33.69945666666667
F15.779997738621509
tp20
a(F10.17535606473506
F15.6794031271711
tp21
a(F6.8022908328695975
F20.258626928164933
tp22
a(F6.337709541824108
F14.290495798415082
tp23
a(F2.896194173622705
F18.93775790392493
tp24
a(F8.342899463746186
F15.263864502226086
tp25
a(F5.063798541219493
F17.85190047440119
tp26
a(F26.951817279119176
F5.956834112449239
tp27
a(F36.953882251994756
F6.290769719441111
tp28
a(F57.86278850377959
F4.738805748691613
tp29
a(F28.068886243071255
F3.033722324889492
tp30
a(F31.73411948385359
F2.4093327801674604
tp31
a(F28.29286702372961
F4.483599899929356
tp32
a(F32.97248442964307
F3.7167234435169534
tp33
a(F44.39400476064196
F6.3321631527505815
tp34
a(F28.590231043839474
F3.844843474555422
tp35
a(F27.245086296003173
F4.616706309917693
tp36
a(F30.72921510056443
F16.653156354635332
tp37
a(F-1.9222933333333334
F10.78583313190999
tp38
a(F32.39959642857143
F21.967661216516387
tp39
a(F31.896372452102714
F13.98510457195031
tp40
a(F35.55969470921745
F7.347899488766085
tp41
a(F31.822773463131075
F26.086502361577004
tp42
a(F36.78551042411956
F20.588321805846963
tp43
a(F15.961487777777775
F23.249971913717065
tp44
a(F32.11462848943715
F2.357830726619189
tp45
a(F31.06503286032276
F15.400522069772705
tp46
a(F6.351822222044971
F15.631306803164383
tp47
a(F3.0231497237301785
F17.544477003626525
tp48
a(F6.449116679116951
F15.697319455211982
tp49
a(F3.148560695230695
F22.311200777146343
tp50
a(F9.570692173953027
F15.005929082166404
tp51
a(F6.195041205167287
F20.127595958222326
tp52
a(F10.977462214760001
F4.789225560923417
tp53
a(F32.035828124999995
F3.43118779004241
tp54
a(F18.586953333333334
F14.82204166931721
tp55
a(F1.391463695047301
F20.254010628908873
tp56
a(F11.558282449666306
F9.765278263534936
tp57
a(F30.33840240544596
F2.7504033790901303
tp58
a(F32.522853392807455
F7.886010446247052
tp59
a(F6.2022117246768955
F16.81961094370733
tp60
a(F0.1911611111111111
F36.58096243425583
tp61
a(F7.3910422222222225
F32.94546176755632
tp62
a(F19.06650314227416
F23.432493645465
tp63
a(F2.9553612257577817
F24.0055959757107
tp64
a(F1.8642678909293264
F29.6833331247326
tp65
a(F5.903526657335091
F15.587368621660227
tp66
a(F2.597521328913586
F20.125643220031634
tp67
a(F4.909054697576958
F16.003915164697293
tp68
a(F1.33083321450643
F18.957097980271403
tp69
a(F5.010458333333334
F18.488487432866048
tp70
a(F18.714932184593373
F7.753732995544043
tp71
a(F2.4108146012585077
F20.29343645173746
tp72
a(F6.128075239983305
F21.316690944756072
tp73
a(F3.9207288888888883
F21.60320955196706
tp74
a(F40.00771951029494
F4.364017180063659
tp75
a(F6.011118030050084
F21.947833257572103
tp76
a(F6.169829554865425
F20.73027319360214
tp77
a(F3.019747699870154
F20.749451593883958
tp78
a(F6.081307664483541
F20.77250239229761
tp79
a(F6.487377380952381
F21.360827600583434
tp80
a(F7.806411111111111
F21.222239886022482
tp81
a(F5.903578671048971
F21.049358805796754
tp82
a(F3.9801591541457984
F22.39142250996083
tp83
a(F5.254597605135543
F20.632604843005538
tp84
a(F31.645385555555556
F16.92142057279125
tp85
a(F6.409009440570886
F20.513455722713843
tp86
a(F5.406339277955518
F21.32287434240182
tp87
a(F4.184091025641026
F20.89727725678434
tp88
a(F1.4768514564288704
F20.323704291600734
tp89
a(F11.541874197382944
F9.8786079373888
tp90
a(F30.516596854131883
F1.375519878230989
tp91
a(F32.55353670392683
F5.552064587362111
tp92
a(F0.329612653793103
F21.30284355573046
tp93
a(F6.4988781436076275
F14.250896233832464
tp94
a(F7.433716620255859
F32.422993637536734
tp95
a(F19.071476138200108
F23.796424511509638
tp96
a(F2.9690570193063257
F20.827892780226346
tp97
a(F-0.36950395947289827
F25.988941136281937
tp98
a(F1.6131948989055835
F20.186044824620087
tp99
a(F11.671305555555557
F8.353329519927502
tp100
a(F30.215149992050243
F1.12375333532691
tp101
a(F32.687933317433824
F4.637820670804516
tp102
a(F2.740536008918617
F22.74800835813706
tp103
a(F-0.3942774968154441
F15.414573149289936
tp104
a(F2.7810858671860506
F37.72510825120844
tp105
a(F19.19341222222222
F22.785515507062275
tp106
a(F3.146254151573612
F22.070072923398886
tp107
a(F1.9898509810479375
F28.575053186854348
tp108
a(F15.01295
F19.270988502384473
tp109
a(F-7.392941767424056
F12.014247494284064
tp110
a(F43.480168936074
F1.0716677829623222
tp111
a(F13.761293890451274
F10.909573120530695
tp112
a(F16.712038816546094
F25.90731342486106
tp113
a(F16.183760578087664
F20.55875883786939
tp114
a(F19.902467842473
F14.055214980384335
tp115
a(F16.429170997818037
F31.050202235734712
tp116
a(F20.98322114150365
F26.500326029787008
tp117
a(F16.541831471004688
F21.74064114643261
tp118
a(F15.3538
F24.238686355762184
tp119
a(F-0.6354395833333333
F20.49638253962621
tp120
a(F9.511086242322726
F9.88803080587902
tp121
a(F-2.9517234965683548
F27.649273212688666
tp122
a(F0.7587466061448078
F28.552386986402173
tp123
a(F-1.5861022222222225
F28.06478427311716
tp124
a(F28.213439887908415
F1.9084339467808604
tp125
a(F30.543034077165643
F3.9316976401446895
tp126
a(F0.6443565983835007
F29.92490684854177
tp127
a(F0.7662707308477092
F28.375170536649723
tp128
a(F-2.6561374397453577
F27.34209180615532
tp129
a(F0.6100101081432904
F21.19267519431499
tp130
a(F1.1215982550282215
F29.071685555391014
tp131
a(F2.354378753202835
F30.185551336656015
tp132
a(F4.271444286793706
F15.788371336335937
tp133
a(F0.6603100000000001
F30.12962660449557
tp134
a(F5.532191666666667
F28.755547811446544
tp135
a(F-0.22308294565636141
F28.86900278995745
tp136
a(F17.014912499999998
F21.7096235648108
tp137
a(F-0.06612345575959938
F28.079249074449763
tp138
a(F-1.2179161777352727
F29.89075803097027
tp139
a(F2.5121338619922096
F20.380912913319964
tp140
a(F12.490257135967356
F8.100994994677603
tp141
a(F31.282263033381536
F1.2531729185332854
tp142
a(F33.419907347408035
F4.481676241890951
tp143
a(F3.6144519203158647
F22.100560646892216
tp144
a(F7.322316670133069
F15.159251258165265
tp145
a(F1.3549187654026553
F36.01565878690841
tp146
a(F8.19700957901082
F32.76520450304573
tp147
a(F20.0409488237608
F22.918430327515427
tp148
a(F4.042423827204709
F17.927549555354442
tp149
a(F8.325007264559595
F15.821104818955064
tp150
a(F4.88011954655372
F16.436062768955406
tp151
a.