(lp0
(F3.261
F4.687088990040745
tp1
a(F1.075
F10.262133464838067
tp2
a(F13.201
F29.181893548396015
tp3
a(F43.429
F25.693122717336966
tp4
a(F3.155
F49.690915889035054
tp5
a(F8.174
F43.430681840588264
tp6
a(F3.081
F43.670070562449595
tp7
a(F45.171
F19.749352299250088
tp8
a(F56.997
F18.415671724038056
tp9
a(F63.824
F18.47816510957021
tp10
a(F58.138
F20.81136154333273
tp11
a(F0.315
F1.581226419347028
tp12
a(F57.043
F18.143440972625587
tp13
a(F55.237
F21.99316169321537
tp14
a(F9.558
F25.780148626172117
tp15
a(F62.075
F21.271464364961364
tp16
a(F3.08
F44.84715521037579
tp17
a(F0.138
F76.69415496769719
tp18
a(F3.111
F43.36576084642169
tp19
a(F3.146
F50.790031032714374
tp20
a(F0.148
F9.007597419666126
tp21
a(F3.048
F33.340559668295704
tp22
a(F0.361
F156.4853473413879
tp23
a(F0.354
F71.25870315692923
tp24
a(F3.045
F43.941763630571465
tp25
a(F3.104
F53.601219252611585
tp26
a(F3.099
F49.51029137468764
tp27
a(F56.343
F28.42973696719855
tp28
a(F3.106
F52.930834096922936
tp29
a(F43.423
F20.36785153629115
tp30
a(F55.31
F19.270180840689974
tp31
a(F62.069
F17.569574378574124
tp32
a(F56.347
F25.91545501594933
tp33
a(F3.118
F4.886204211379994
tp34
a(F9.859
F11.933675593230873
tp35
a(F8.175
F33.927096113795415
tp36
a(F0.3
F9.108506367231408
tp37
a(F3.103
F13.081031506260237
tp38
a(F33.102
F35.87531887804373
tp39
a(F3.12
F58.12315479275632
tp40
a(F5.223
F6.331538453387718
tp41
a(F3.487
F24.117206470031913
tp42
a(F0.075
F81.37510905531776
tp43
a(F3.138
F45.93370007752226
tp44
a.