(lp0
(F43.21
F10.456801973479358
tp1
a(F2.883
F27.77189095136596
tp2
a(F7.934
F18.822764932776668
tp3
a(F2.867
F30.051760696676062
tp4
a(F3.261
F18.357092317766867
tp5
a(F55.068
F6.561216239315959
tp6
a(F61.848
F10.176111634238623
tp7
a(F2.858
F30.39543947441027
tp8
a(F2.917
F28.11572796594174
tp9
a(F2.886
F24.822210276135948
tp10
a(F3.254
F23.224124963917745
tp11
a(F3.263
F19.765774232579307
tp12
a(F2.873
F30.32846769244345
tp13
a(F2.835
F30.269362884768565
tp14
a(F56.119
F17.664261030623827
tp15
a(F2.874
F30.787101816515936
tp16
a(F1.075
F28.389675029029604
tp17
a(F7.929
F29.640870440440874
tp18
a(F2.864
F27.64625869023924
tp19
a(F32.865
F21.242014008249306
tp20
a(F1.151
F21.59955263324082
tp21
a(F3.255
F21.699764612152478
tp22
a(F2.862
F30.718936999999855
tp23
a(F43.211
F16.470470132947796
tp24
a(F45.203
F17.741903006142483
tp25
a(F50.307
F17.132083910778164
tp26
a(F45.174
F24.526080748595465
tp27
a(F45.165
F16.674878769124355
tp28
a(F97.082
F6.772943954914808
tp29
a(F19.234
F12.816635788595747
tp30
a(F45.205
F26.34901588285963
tp31
a(F45.238
F17.15310199212196
tp32
a(F45.259
F17.267226151275363
tp33
a(F45.201
F19.836244030901028
tp34
a(F45.231
F14.776909608309241
tp35
a(F45.195
F26.562123062647878
tp36
a(F45.192
F26.210805872786377
tp37
a(F13.201
F17.937966066279582
tp38
a(F45.164
F24.4156460611319
tp39
a(F43.429
F21.34552050277125
tp40
a(F50.258
F22.175342752753448
tp41
a(F45.193
F21.56102618268183
tp42
a(F10.481
F22.174426697692727
tp43
a(F43.497
F6.626337981306363
tp44
a(F45.614
F16.529079796353148
tp45
a(F45.192
F25.297959820636443
tp46
a(F2.928
F18.46501782595427
tp47
a(F45.179
F10.751239125844927
tp48
a(F10.249
F19.420132838864006
tp49
a(F0.134
F30.84320950003651
tp50
a(F0.374
F18.820667824832103
tp51
a(F57.051
F4.902996188391828
tp52
a(F63.904
F10.118415748839206
tp53
a(F0.122
F31.326846646068958
tp54
a(F0.155
F29.096815022814553
tp55
a(F0.189
F27.615858963123806
tp56
a(F0.373
F26.032825619695668
tp57
a(F0.387
F19.99865407140014
tp58
a(F0.094
F31.506707747913122
tp59
a(F0.154
F30.77013430436503
tp60
a(F58.274
F17.380248244189552
tp61
a(F0.374
F31.7354842690865
tp62
a(F3.155
F23.623398222741397
tp63
a(F10.009
F28.602229379967827
tp64
a(F0.172
F26.80020942605789
tp65
a(F34.93
F21.74220756885673
tp66
a(F3.265
F19.645406085289206
tp67
a(F0.777
F25.97246892932647
tp68
a(F0.148
F31.101538530352745
tp69
a(F7.941
F18.32327314160971
tp70
a(F50.31
F13.843782735508725
tp71
a(F9.983
F32.3649195274072
tp72
a(F9.903
F33.76103032802025
tp73
a(F9.888
F19.896240263362415
tp74
a(F61.87
F7.904512062203139
tp75
a(F68.921
F13.889860563528012
tp76
a(F9.93
F33.469521463952134
tp77
a(F10.026
F30.88295078246544
tp78
a(F9.961
F30.45106158641112
tp79
a(F9.907
F29.201308593318306
tp80
a(F9.894
F23.04214853267459
tp81
a(F9.924
F34.63082133621598
tp82
a(F9.914
F32.96595137905226
tp83
a(F63.268
F17.481016471210335
tp84
a(F9.926
F34.56460505721366
tp85
a(F8.174
F27.35680115391733
tp86
a(F0.087
F28.15594867140274
tp87
a(F9.93
F30.685593086870057
tp88
a(F39.944
F21.758814821873482
tp89
a(F8.214
F25.2459017083581
tp90
a(F10.348
F26.692651596670558
tp91
a(F11.509
F34.46179137554847
tp92
a(F2.874
F19.217653326056897
tp93
a(F45.147
F9.697907699034252
tp94
a(F0.119
F29.573852972183378
tp95
a(F9.933
F20.46047042167629
tp96
a(F0.318
F17.912434807321166
tp97
a(F56.936
F6.3468302594763895
tp98
a(F63.871
F10.557881309061635
tp99
a(F0.088
F32.02015812532502
tp100
a(F0.164
F30.061762636280335
tp101
a(F0.108
F29.190105730861735
tp102
a(F0.311
F26.180465928162448
tp103
a(F0.286
F19.870434854140814
tp104
a(F0.11
F31.656763727338436
tp105
a(F0.09
F32.35006939947605
tp106
a(F58.194
F16.852039705692896
tp107
a(F0.107
F30.309235250321674
tp108
a(F3.081
F26.644322829734946
tp109
a(F9.941
F29.720340178942585
tp110
a(F0.232
F26.24264251423301
tp111
a(F34.886
F21.659289324675136
tp112
a(F3.14
F18.25763269843689
tp113
a(F0.716
F26.531675062011928
tp114
a(F0.13
F31.186435752175747
tp115
a(F45.171
F17.441464777237602
tp116
a(F0.341
F21.536235257258845
tp117
a(F9.901
F18.44228358240798
tp118
a(F0.327
F29.639461355749518
tp119
a(F56.997
F7.1168232841882855
tp120
a(F63.824
F14.217973379131694
tp121
a(F0.413
F26.95033624292248
tp122
a(F0.362
F23.29679681510768
tp123
a(F0.322
F21.479231173405424
tp124
a(F0.156
F24.497679553526854
tp125
a(F0.161
F15.484688386868905
tp126
a(F0.313
F28.844153343855094
tp127
a(F0.314
F28.290187914493597
tp128
a(F58.138
F14.64010273029699
tp129
a(F0.31
F26.850422234986635
tp130
a(F3.039
F28.14964119240176
tp131
a(F9.872
F24.219988909363746
tp132
a(F0.315
F22.42749467289404
tp133
a(F34.897
F17.256865916554542
tp134
a(F3.083
F16.056392782574726
tp135
a(F5.209
F24.313161090454635
tp136
a(F0.33
F29.120655992327052
tp137
a(F55.082
F7.352959101179206
tp138
a(F97.294
F6.8569185601928355
tp139
a(F57.025
F5.5568030744054635
tp140
a(F61.911
F4.325835722731426
tp141
a(F57.098
F5.693144147676465
tp142
a(F57.043
F6.215078111582746
tp143
a(F115.951
F4.97003792703063
tp144
a(F56.834
F5.092572931745431
tp145
a(F56.928
F4.893298779326003
tp146
a(F57.114
F4.470849210318799
tp147
a(F57.129
F5.217374099395806
tp148
a(F57.109
F4.995195466786241
tp149
a(F57.107
F6.285334935921821
tp150
a(F57.014
F5.823933405346822
tp151
a(F110.018
F3.3479034257121385
tp152
a(F57.019
F5.74084214211964
tp153
a(F55.237
F11.051193031598814
tp154
a(F61.905
F5.544405162262802
tp155
a(F56.804
F5.336479139196255
tp156
a(F86.932
F6.6395288647618145
tp157
a(F55.382
F4.8930131158290004
tp158
a(F57.372
F6.159721449812556
tp159
a(F57.042
F5.959568525177681
tp160
a(F61.849
F15.59231994322247
tp161
a(F19.233
F11.958656162977041
tp162
a(F63.905
F17.494245073931335
tp163
a(F68.903
F16.795135016229164
tp164
a(F63.839
F23.384984781903526
tp165
a(F63.857
F13.561124358182916
tp166
a(F63.846
F24.51408174179148
tp167
a(F63.912
F16.460060842462223
tp168
a(F63.89
F16.854314833243446
tp169
a(F63.886
F19.5863740605535
tp170
a(F63.84
F11.959633456627754
tp171
a(F63.844
F24.107965052085504
tp172
a(F63.842
F24.406107061143434
tp173
a(F9.558
F18.30172601621598
tp174
a(F63.844
F22.49299479794519
tp175
a(F62.075
F20.577765393940112
tp176
a(F68.924
F18.631670274660877
tp177
a(F63.883
F21.022685825694786
tp178
a(F29.502
F21.243995708889912
tp179
a(F62.11
F4.666495801903671
tp180
a(F64.245
F14.983957840785893
tp181
a(F63.808
F23.427468392362986
tp182
a(F2.848
F18.831973723268934
tp183
a(F45.173
F10.84458127323952
tp184
a(F0.119
F29.453548899404705
tp185
a(F9.928
F19.17730869486695
tp186
a(F0.11
F32.49048583306372
tp187
a(F0.296
F17.90836388858802
tp188
a(F56.854
F5.695433653848753
tp189
a(F63.829
F10.502889854985094
tp190
a(F0.116
F30.355195833253674
tp191
a(F0.098
F29.492985567256333
tp192
a(F0.322
F26.418648351061467
tp193
a(F0.31
F19.831426389757542
tp194
a(F0.095
F32.2938612655364
tp195
a(F0.075
F32.654150609951465
tp196
a(F58.16
F16.926658331746392
tp197
a(F0.085
F31.593256069440393
tp198
a(F3.08
F27.996117253011715
tp199
a(F9.904
F29.86268672432275
tp200
a(F0.138
F26.891675022721756
tp201
a(F34.889
F23.31731147089973
tp202
a(F3.108
F17.499457993943775
tp203
a(F0.725
F26.737774495910852
tp204
a(F0.107
F31.518714655507356
tp205
a(F2.893
F18.318538682668336
tp206
a(F45.224
F10.670554893849374
tp207
a(F0.251
F28.71911591050836
tp208
a(F10.024
F19.66021978255594
tp209
a(F0.196
F32.27135248558254
tp210
a(F0.339
F20.950570007284675
tp211
a(F71.364
F6.030665507978377
tp212
a(F63.966
F10.897666730333206
tp213
a(F0.154
F32.052841806861885
tp214
a(F0.215
F28.156388049984866
tp215
a(F0.34
F26.553893377133846
tp216
a(F0.35
F19.714492400099214
tp217
a(F0.154
F31.17645027618467
tp218
a(F0.148
F32.13864666528146
tp219
a(F58.223
F17.470077706926055
tp220
a(F0.14
F31.17154151341897
tp221
a(F3.111
F22.7461888986804
tp222
a(F10.024
F28.984636254203707
tp223
a(F0.141
F25.903857169459418
tp224
a(F34.97
F21.48703597052669
tp225
a(F3.162
F19.55873063000593
tp226
a(F0.828
F26.212451664453493
tp227
a(F0.171
F31.28677287798527
tp228
a(F2.895
F18.619323621123876
tp229
a(F45.271
F11.406533929646354
tp230
a(F0.178
F29.32624320212276
tp231
a(F9.945
F20.017366821039467
tp232
a(F0.118
F30.892417925790106
tp233
a(F0.41
F19.18662113621831
tp234
a(F57.074
F4.760801652623784
tp235
a(F63.861
F9.998220475957446
tp236
a(F0.098
F31.267957638112865
tp237
a(F0.22
F28.6417393652567
tp238
a(F0.41
F25.43903840589337
tp239
a(F0.455
F19.750340386643074
tp240
a(F0.096
F30.712991707749207
tp241
a(F0.085
F31.451995148342483
tp242
a(F58.209
F16.258883244397634
tp243
a(F0.099
F31.043624535221987
tp244
a(F3.146
F25.301462442723704
tp245
a(F9.973
F28.373635925231095
tp246
a(F0.174
F25.610255897336174
tp247
a(F34.942
F21.214117965719197
tp248
a(F3.19
F19.47071264097062
tp249
a(F0.793
F25.86210427039816
tp250
a(F0.106
F30.150701881595413
tp251
a(F3.293
F16.78428405124781
tp252
a(F45.22
F6.761971462453001
tp253
a(F0.356
F26.694863968617504
tp254
a(F9.899
F19.62779529541041
tp255
a(F0.31
F33.82525962119012
tp256
a(F0.148
F18.429712436949977
tp257
a(F56.991
F2.3690138132178356
tp258
a(F63.874
F5.430559647701135
tp259
a(F0.327
F34.030429814184124
tp260
a(F0.449
F24.445381462898887
tp261
a(F0.325
F25.333323255913065
tp262
a(F0.103
F19.557090577691618
tp263
a(F1.957
F33.270213649478244
tp264
a(F0.625
F33.92929105798519
tp265
a(F58.138
F6.950133463299674
tp266
a(F0.301
F33.63645977949247
tp267
a(F3.048
F30.735517010325566
tp268
a(F9.881
F30.195621492673776
tp269
a(F0.361
F28.771728278714278
tp270
a(F34.936
F15.622327391209817
tp271
a(F5.381
F16.345233802351036
tp272
a(F14.531
F22.127487612714948
tp273
a(F1.342
F33.50095101935399
tp274
a(F3.265
F18.33632395328954
tp275
a(F45.294
F11.285672430033712
tp276
a(F0.364
F29.411624812540047
tp277
a(F9.917
F20.464021205422327
tp278
a(F0.332
F33.74911575835637
tp279
a(F0.132
F17.6769521633978
tp280
a(F57.016
F6.414187060325946
tp281
a(F63.888
F11.926520516930355
tp282
a(F0.315
F33.61512785313651
tp283
a(F0.354
F29.657570179022265
tp284
a(F0.381
F29.33060158273205
tp285
a(F0.112
F26.907371992978486
tp286
a(F0.337
F34.08473009683703
tp287
a(F0.354
F33.51386776363806
tp288
a(F58.138
F18.02921805427953
tp289
a(F0.343
F32.9500665488452
tp290
a(F3.045
F26.863006079052056
tp291
a(F9.893
F29.81680365420006
tp292
a(F0.357
F28.167207598895292
tp293
a(F34.892
F22.241381601858883
tp294
a(F3.106
F20.928821839150043
tp295
a(F5.242
F27.820490914601834
tp296
a(F0.322
F33.06662623908371
tp297
a(F2.873
F18.483151314818922
tp298
a(F45.218
F11.229612951384897
tp299
a(F0.154
F30.653185777501978
tp300
a(F9.96
F20.898429157367598
tp301
a(F0.14
F31.962506243940442
tp302
a(F0.32
F18.681389412202407
tp303
a(F57.008
F5.625601069018659
tp304
a(F63.867
F10.058797835965049
tp305
a(F0.151
F31.61830052956939
tp306
a(F0.181
F30.19244789192453
tp307
a(F0.153
F28.923497427875798
tp308
a(F0.3
F26.538847158055592
tp309
a(F0.318
F19.979746892059943
tp310
a(F0.098
F31.96753131909296
tp311
a(F58.158
F17.520079867934136
tp312
a(F0.094
F30.7140924420394
tp313
a(F3.104
F26.444404299163985
tp314
a(F9.925
F28.807025438539036
tp315
a(F0.092
F26.21237027249299
tp316
a(F34.869
F21.558660663797387
tp317
a(F3.18
F18.241602248431224
tp318
a(F0.737
F25.863955315810685
tp319
a(F0.076
F32.10592612363398
tp320
a(F2.845
F18.341892002286233
tp321
a(F45.189
F11.340161295870885
tp322
a(F0.148
F29.35989802750778
tp323
a(F9.932
F20.123155205603688
tp324
a(F0.093
F32.179207389414
tp325
a(F0.36
F19.25335441598048
tp326
a(F56.961
F5.130035763562081
tp327
a(F63.862
F9.813516703370789
tp328
a(F0.107
F33.06780006407703
tp329
a(F0.143
F29.761601023686428
tp330
a(F0.104
F28.936270414023763
tp331
a(F0.332
F26.27434859179119
tp332
a(F0.358
F20.04863196562898
tp333
a(F0.073
F32.19441486600482
tp334
a(F58.208
F17.5002709524706
tp335
a(F0.073
F31.895074307763327
tp336
a(F3.099
F24.37689459559453
tp337
a(F9.919
F30.03219437443287
tp338
a(F0.1
F26.675556920191394
tp339
a(F34.873
F22.70416680609389
tp340
a(F3.726
F17.459630428615245
tp341
a(F0.74
F26.38875218036507
tp342
a(F0.074
F31.672615705329616
tp343
a(F10.029
F15.571096841384596
tp344
a(F55.966
F8.345987574587207
tp345
a(F12.091
F19.018628460355103
tp346
a(F3.326
F18.853749947489373
tp347
a(F12.015
F21.306811185120498
tp348
a(F81.725
F4.837978019548411
tp349
a(F75.395
F8.475636980252428
tp350
a(F12.005
F20.425974536749223
tp351
a(F12.061
F19.151148158894934
tp352
a(F12.12
F19.285683926053185
tp353
a(F12.021
F19.60321917727669
tp354
a(F11.991
F19.41698963861828
tp355
a(F12.032
F20.197665084113783
tp356
a(F12.016
F20.347587496123236
tp357
a(F68.666
F12.844685081756957
tp358
a(F12.009
F20.469567087954946
tp359
a(F10.376
F15.715171039686538
tp360
a(F3.304
F20.756292729532685
tp361
a(F12.031
F18.37067193110757
tp362
a(F51.873
F15.777964537517857
tp363
a(F10.352
F19.145654302525024
tp364
a(F12.395
F20.439732578769327
tp365
a(F12.005
F19.70941362547827
tp366
a(F56.117
F16.144419555966223
tp367
a(F13.209
F12.080405640542846
tp368
a(F58.231
F19.013207173683558
tp369
a(F63.289
F14.770574274713233
tp370
a(F58.14
F23.741535569184478
tp371
a(F58.17
F14.083322977026304
tp372
a(F109.974
F12.908081243817623
tp373
a(F9.548
F14.780352341497995
tp374
a(F58.172
F24.084622357694553
tp375
a(F58.233
F19.326321841743976
tp376
a(F58.153
F19.15720936714712
tp377
a(F58.189
F21.393721085684817
tp378
a(F58.149
F16.540629868355996
tp379
a(F58.193
F24.41553634246613
tp380
a(F58.217
F24.45029225644279
tp381
a(F58.151
F24.517084749752378
tp382
a(F56.343
F18.25806199532235
tp383
a(F63.223
F22.336706865290623
tp384
a(F58.124
F22.497407192485813
tp385
a(F23.474
F22.380228791608598
tp386
a(F56.497
F17.781901510333284
tp387
a(F58.49
F20.899083460257813
tp388
a(F58.15
F24.23186721853183
tp389
a(F2.835
F18.41568584540859
tp390
a(F45.188
F10.39890628054421
tp391
a(F0.119
F30.010511459250534
tp392
a(F9.946
F19.96057818303234
tp393
a(F0.101
F31.75495127722621
tp394
a(F0.349
F18.731385662511457
tp395
a(F56.912
F5.350526690991088
tp396
a(F63.838
F10.45052483146812
tp397
a(F0.065
F31.41868800105527
tp398
a(F0.093
F30.01292477288541
tp399
a(F0.103
F29.324857137839686
tp400
a(F0.386
F25.952381792339555
tp401
a(F0.327
F20.38152605418724
tp402
a(F0.079
F30.823396620880814
tp403
a(F0.073
F31.83512303121388
tp404
a(F58.098
F17.247831389514936
tp405
a(F3.106
F27.160090353285128
tp406
a(F9.941
F28.680375074218635
tp407
a(F0.118
F25.38390094610121
tp408
a(F34.866
F21.71971303055063
tp409
a(F3.149
F19.680163640645333
tp410
a(F0.727
F26.06008583439514
tp411
a(F0.089
F31.202844597604127
tp412
a(F1.085
F12.777544224110898
tp413
a(F43.423
F12.229912536950517
tp414
a(F3.142
F23.045104555102686
tp415
a(F8.162
F17.462819711643863
tp416
a(F3.11
F28.540893203229643
tp417
a(F3.032
F16.708442920198042
tp418
a(F55.31
F7.355138755248238
tp419
a(F62.069
F13.385739175835624
tp420
a(F3.089
F28.254386459710076
tp421
a(F3.119
F20.485769951250404
tp422
a(F3.685
F23.084848245295387
tp423
a(F3.041
F22.96955581887492
tp424
a(F3.057
F15.82209300007671
tp425
a(F3.107
F29.66145131236408
tp426
a(F3.091
F27.844963621522766
tp427
a(F56.347
F14.052233763388358
tp428
a(F3.081
F27.152065526344813
tp429
a(F8.156
F25.935277618526015
tp430
a(F3.118
F23.39313122909516
tp431
a(F33.117
F18.38635664875619
tp432
a(F0.142
F15.771225377793114
tp433
a(F3.488
F23.619525524205528
tp434
a(F3.145
F29.659694652131293
tp435
a(F7.929
F18.53284306440591
tp436
a(F50.276
F9.972030778145907
tp437
a(F9.956
F27.803029548795894
tp438
a(F0.081
F17.197680134177208
tp439
a(F10.051
F34.74588544502677
tp440
a(F9.859
F17.759938155223306
tp441
a(F61.902
F6.380710643250495
tp442
a(F68.941
F9.544519428642014
tp443
a(F9.912
F35.321802109879044
tp444
a(F10.025
F27.789503238407807
tp445
a(F9.948
F27.83204583704937
tp446
a(F9.866
F26.260614686168548
tp447
a(F9.853
F20.09679992978529
tp448
a(F9.905
F34.75154933198134
tp449
a(F9.88
F34.919574477687654
tp450
a(F63.217
F16.213391932481457
tp451
a(F9.921
F32.28632811964711
tp452
a(F8.175
F29.56215027725557
tp453
a(F9.917
F28.371664445597407
tp454
a(F39.929
F22.074086740102974
tp455
a(F8.213
F21.660075380117632
tp456
a(F10.311
F26.666503574876558
tp457
a(F9.937
F34.2932923838851
tp458
a(F2.872
F17.33597284221374
tp459
a(F45.183
F7.04081507070743
tp460
a(F0.179
F29.333355721936602
tp461
a(F9.921
F18.064524943844
tp462
a(F0.13
F33.125467498806564
tp463
a(F0.3
F19.33087094557973
tp464
a(F56.828
F3.019230165598648
tp465
a(F63.865
F6.74096220281235
tp466
a(F0.099
F33.449036818156216
tp467
a(F0.174
F28.843694703491487
tp468
a(F0.125
F27.532913348756413
tp469
a(F0.345
F25.98483296076043
tp470
a(F0.311
F20.043635700991295
tp471
a(F0.104
F33.011190360134584
tp472
a(F0.121
F33.135916971264685
tp473
a(F58.15
F7.526798590349601
tp474
a(F0.113
F33.0316509295136
tp475
a(F3.103
F25.797591106593607
tp476
a(F9.949
F24.544937915493584
tp477
a(F34.859
F15.094731556945183
tp478
a(F3.173
F18.605271461758424
tp479
a(F0.717
F19.121991679780994
tp480
a(F0.091
F32.2669430829862
tp481
a(F32.855
F16.983138046289483
tp482
a(F10.469
F12.932571553019807
tp483
a(F34.932
F24.155654754299164
tp484
a(F39.949
F18.111984088658712
tp485
a(F34.848
F28.834783155636654
tp486
a(F34.885
F16.634707413828718
tp487
a(F87.116
F7.65884013621447
tp488
a(F29.474
F12.941026734686348
tp489
a(F34.861
F29.579044416919352
tp490
a(F34.916
F23.403604532972995
tp491
a(F36.502
F22.49696825450907
tp492
a(F34.919
F23.9317085866838
tp493
a(F34.866
F18.607530981937256
tp494
a(F34.878
F29.64721435463677
tp495
a(F34.862
F30.02834317214373
tp496
a(F23.466
F20.330686110237405
tp497
a(F34.845
F28.160263963892227
tp498
a(F33.102
F24.856829521479085
tp499
a(F39.942
F25.731096293105807
tp500
a(F34.886
F25.7576668927954
tp501
a(F33.138
F19.696320262229577
tp502
a(F35.264
F22.80218049866909
tp503
a(F34.837
F29.00803265778555
tp504
a(F1.129
F18.96699230145663
tp505
a(F43.516
F11.261585929896683
tp506
a(F3.2
F25.389920410569758
tp507
a(F8.267
F20.760979142350454
tp508
a(F3.146
F27.145075099766256
tp509
a(F3.099
F19.745461427257396
tp510
a(F55.232
F4.289206592715345
tp511
a(F62.092
F10.007583207146702
tp512
a(F3.12
F28.44364449750556
tp513
a(F3.208
F24.917821520901455
tp514
a(F3.194
F24.896327841836882
tp515
a(F3.113
F25.587353347276803
tp516
a(F3.159
F20.553141243375684
tp517
a(F3.175
F28.045739483306225
tp518
a(F3.125
F27.145536984317005
tp519
a(F56.504
F16.11538557258799
tp520
a(F3.176
F27.520823182985186
tp521
a(F0.126
F22.78038225457486
tp522
a(F8.17
F26.794517903370743
tp523
a(F3.224
F26.825884009969045
tp524
a(F33.201
F19.795027718748898
tp525
a(F3.564
F25.426003029309214
tp526
a(F3.156
F27.261570987030865
tp527
a(F3.25
F18.60106310698875
tp528
a(F45.585
F9.983750856362093
tp529
a(F0.787
F28.07181172101714
tp530
a(F10.332
F19.121465491199935
tp531
a(F0.765
F33.22748716582739
tp532
a(F5.223
F17.870878555310462
tp533
a(F123.09
F5.181555322126338
tp534
a(F70.741
F9.746560087476514
tp535
a(F0.714
F33.90195091755324
tp536
a(F0.796
F27.337227779152315
tp537
a(F0.72
F28.036694452233082
tp538
a(F5.201
F27.396591103567584
tp539
a(F5.198
F20.846154115451057
tp540
a(F0.715
F32.56466465075175
tp541
a(F0.736
F33.478857727699676
tp542
a(F58.483
F16.2683797609061
tp543
a(F0.829
F33.25107589532577
tp544
a(F3.487
F28.96124567388324
tp545
a(F19.098
F31.12063329458414
tp546
a(F0.765
F26.464755207499756
tp547
a(F35.29
F22.144171420982932
tp548
a(F3.545
F18.328722607322213
tp549
a(F0.73
F32.40432569083519
tp550
a(F2.866
F18.675883530943217
tp551
a(F45.189
F11.088016645575408
tp552
a(F0.158
F29.663460831673063
tp553
a(F9.915
F19.84799507897227
tp554
a(F0.09
F31.876443945337087
tp555
a(F0.356
F17.57060844654916
tp556
a(F57.021
F4.785021776909984
tp557
a(F63.832
F10.833280720113015
tp558
a(F0.086
F31.263902323650353
tp559
a(F0.198
F29.276396588752203
tp560
a(F0.163
F29.287045335255403
tp561
a(F0.365
F26.17128297785654
tp562
a(F0.298
F19.66976760380203
tp563
a(F0.091
F31.1464038799916
tp564
a(F0.081
F31.303276818815846
tp565
a(F58.164
F17.655801586319946
tp566
a(F0.075
F30.748260327500805
tp567
a(F3.138
F26.488910072537905
tp568
a(F9.921
F28.726747644093372
tp569
a(F0.136
F25.95656731368407
tp570
a(F34.853
F20.90939679538489
tp571
a(F3.159
F17.376488798337572
tp572
a(F0.735
F26.249328634585254
tp573
a.