(lp0
(F45.203
F13.307107395414883
tp1
a(F50.307
F13.33531225573582
tp2
a(F45.174
F13.918067443417385
tp3
a(F45.165
F13.803657285469983
tp4
a(F97.082
F14.983069075830281
tp5
a(F19.234
F15.965588890792182
tp6
a(F45.238
F13.15595964474293
tp7
a(F45.259
F13.047924540626505
tp8
a(F45.201
F18.23224826925434
tp9
a(F45.231
F17.738453927682713
tp10
a(F45.195
F13.54838587064296
tp11
a(F45.192
F13.786053387525802
tp12
a(F13.201
F19.86522506309363
tp13
a(F45.164
F13.210041175751636
tp14
a(F43.429
F22.554189178083714
tp15
a(F50.258
F15.951302672037855
tp16
a(F45.193
F10.86991845474889
tp17
a(F10.481
F18.802038906142116
tp18
a(F43.497
F17.30852623959072
tp19
a(F45.614
F13.353043726179749
tp20
a(F45.192
F13.77332903134326
tp21
a(F45.179
F16.170020677507498
tp22
a(F10.249
F19.792050942062186
tp23
a(F0.134
F31.22764103436986
tp24
a(F0.374
F18.134514160454273
tp25
a(F57.051
F18.04391300790012
tp26
a(F63.904
F14.594648605140929
tp27
a(F0.155
F29.084054018012605
tp28
a(F0.189
F29.83856227958145
tp29
a(F0.373
F24.09274644798671
tp30
a(F0.387
F21.154740291575973
tp31
a(F0.094
F33.554147991781626
tp32
a(F0.154
F32.56067652864238
tp33
a(F58.274
F17.325253351519887
tp34
a(F0.374
F32.75081973487082
tp35
a(F3.155
F30.772110050687424
tp36
a(F10.009
F24.439399981584685
tp37
a(F0.172
F25.091492313031967
tp38
a(F34.93
F18.684925309095817
tp39
a(F3.265
F27.17746673230655
tp40
a(F0.777
F15.903100626973005
tp41
a(F0.148
F33.90815935434344
tp42
a(F50.31
F16.065552831269226
tp43
a(F9.983
F16.689983221630637
tp44
a(F9.903
F17.866646846469777
tp45
a(F9.888
F20.51988653978333
tp46
a(F61.87
F17.916971366666257
tp47
a(F68.921
F14.327485284982966
tp48
a(F10.026
F17.32030308375565
tp49
a(F9.961
F16.657603347745653
tp50
a(F9.907
F26.33105369958167
tp51
a(F9.894
F20.546729617465573
tp52
a(F9.924
F17.77450588746713
tp53
a(F9.914
F17.040410213029155
tp54
a(F63.268
F17.36087291343854
tp55
a(F9.926
F17.71918704976829
tp56
a(F8.174
F26.59993565820444
tp57
a(F0.087
F31.310752543119285
tp58
a(F9.93
F13.191372913523363
tp59
a(F39.944
F18.23413644394336
tp60
a(F8.214
F24.933203448684743
tp61
a(F10.348
F17.537711639888585
tp62
a(F11.509
F17.374672270021758
tp63
a(F45.147
F16.973272076019875
tp64
a(F0.119
F28.634986487790368
tp65
a(F9.933
F19.250219357343248
tp66
a(F0.318
F17.798192845773883
tp67
a(F56.936
F16.258746342360972
tp68
a(F63.871
F14.594136305941412
tp69
a(F0.164
F29.831944642731777
tp70
a(F0.108
F27.89748974903845
tp71
a(F0.311
F23.83013401581691
tp72
a(F0.286
F20.729345689742612
tp73
a(F0.11
F33.80241035978095
tp74
a(F0.09
F35.10384434232345
tp75
a(F58.194
F16.16848684904667
tp76
a(F0.107
F35.858260943984185
tp77
a(F3.081
F33.81115319056866
tp78
a(F9.941
F25.999523261132147
tp79
a(F0.232
F12.678302793906859
tp80
a(F34.886
F19.276260701867823
tp81
a(F3.14
F25.717025655178496
tp82
a(F0.716
F16.236264859827664
tp83
a(F0.13
F36.970868785220844
tp84
a(F45.171
F17.093401196296327
tp85
a(F0.341
F23.399761136621237
tp86
a(F9.901
F19.924461063113995
tp87
a(F0.327
F18.608440485433675
tp88
a(F56.997
F18.079940231516957
tp89
a(F63.824
F15.115592438378371
tp90
a(F0.362
F14.000235617277212
tp91
a(F0.322
F18.917876463732682
tp92
a(F0.156
F13.951337374164723
tp93
a(F0.161
F13.187659129500389
tp94
a(F0.313
F23.596490765805356
tp95
a(F0.314
F20.783371826750226
tp96
a(F58.138
F15.059087385772727
tp97
a(F0.31
F21.04636073030997
tp98
a(F3.039
F31.47724872455001
tp99
a(F9.872
F26.340319517068565
tp100
a(F0.315
F10.767740024602972
tp101
a(F34.897
F19.612737367628142
tp102
a(F3.083
F25.366313933511265
tp103
a(F5.209
F17.477353252936155
tp104
a(F0.33
F19.4851212130161
tp105
a(F97.294
F12.086080818250775
tp106
a(F57.025
F11.2292602898553
tp107
a(F61.911
F13.101805358938872
tp108
a(F57.098
F13.279761314764619
tp109
a(F57.043
F13.54452342260629
tp110
a(F115.951
F11.072149148397148
tp111
a(F56.928
F12.665588002279401
tp112
a(F57.114
F12.023049449548125
tp113
a(F57.129
F18.109048740006983
tp114
a(F57.109
F16.46630004271865
tp115
a(F57.107
F13.356005192548036
tp116
a(F57.014
F13.313415507227182
tp117
a(F110.018
F13.631678517907858
tp118
a(F57.019
F12.816526815481485
tp119
a(F55.237
F21.769921149685977
tp120
a(F61.905
F14.938323825970292
tp121
a(F56.804
F10.848055781796575
tp122
a(F86.932
F13.81612609680742
tp123
a(F55.382
F16.688696583919228
tp124
a(F57.372
F13.108218995854259
tp125
a(F57.042
F12.696843660064042
tp126
a(F19.233
F15.78997972362082
tp127
a(F63.905
F11.15180018273267
tp128
a(F68.903
F11.620681624083469
tp129
a(F63.839
F10.914376498707993
tp130
a(F63.857
F11.15605347432817
tp131
a(F115.817
F12.747732429392636
tp132
a(F63.912
F11.605211566541005
tp133
a(F63.89
F11.180349281057715
tp134
a(F63.886
F15.592478441751815
tp135
a(F63.84
F15.271835960214958
tp136
a(F63.844
F11.36062346898358
tp137
a(F63.842
F11.88456344452094
tp138
a(F9.558
F17.996827356940642
tp139
a(F63.844
F11.582621646367691
tp140
a(F62.075
F18.943032221106645
tp141
a(F68.924
F13.915456037545068
tp142
a(F63.883
F9.871273438954217
tp143
a(F29.502
F15.929769522002475
tp144
a(F62.11
F14.560302483171903
tp145
a(F64.245
F11.33602422450415
tp146
a(F63.808
F11.649712905711072
tp147
a(F45.224
F15.965964624658227
tp148
a(F0.251
F29.38125528079959
tp149
a(F10.024
F19.850169721704262
tp150
a(F0.196
F33.99078037990974
tp151
a(F0.339
F18.342965786228888
tp152
a(F71.364
F18.276741408370434
tp153
a(F63.966
F14.492109097612019
tp154
a(F0.215
F30.126499134688995
tp155
a(F0.34
F23.30755264684558
tp156
a(F0.35
F20.80670067890046
tp157
a(F0.154
F33.828286960577735
tp158
a(F0.148
F34.596320550458934
tp159
a(F58.223
F15.919765627083297
tp160
a(F0.14
F35.03850788035645
tp161
a(F3.111
F33.513520134684555
tp162
a(F10.024
F25.65568662341684
tp163
a(F0.141
F25.127335620112717
tp164
a(F34.97
F19.190673026614466
tp165
a(F3.162
F25.705731118742662
tp166
a(F0.828
F16.372556095083173
tp167
a(F0.171
F36.71056779137311
tp168
a(F45.271
F14.687553388639712
tp169
a(F0.178
F29.246312108034125
tp170
a(F9.945
F16.695586473824314
tp171
a(F0.118
F29.061309185380544
tp172
a(F0.41
F18.206981276976876
tp173
a(F63.861
F13.255572071155676
tp174
a(F0.22
F30.90961237015346
tp175
a(F0.41
F20.10401970255547
tp176
a(F0.455
F18.16022403086894
tp177
a(F0.096
F33.850313146670274
tp178
a(F0.085
F35.22602118874112
tp179
a(F58.209
F14.444609590591146
tp180
a(F0.099
F35.30132432489727
tp181
a(F3.146
F28.290783894821427
tp182
a(F9.973
F22.538422813567404
tp183
a(F0.174
F24.68593200704513
tp184
a(F34.942
F17.733261835403166
tp185
a(F3.19
F22.357825757792362
tp186
a(F0.793
F14.495751694131355
tp187
a(F0.106
F36.36446190546625
tp188
a(F45.22
F10.347143258730119
tp189
a(F0.356
F30.194071606140245
tp190
a(F9.899
F14.307648676786233
tp191
a(F0.31
F33.46765695342963
tp192
a(F0.148
F18.957630238340546
tp193
a(F56.991
F7.530548341013491
tp194
a(F63.874
F8.368547991849482
tp195
a(F0.449
F31.14908354593949
tp196
a(F0.325
F26.702129383571446
tp197
a(F0.103
F22.258248080922797
tp198
a(F1.957
F31.596081311052497
tp199
a(F0.625
F33.402617441236295
tp200
a(F58.138
F11.406605411574922
tp201
a(F0.301
F31.938687121834267
tp202
a(F3.048
F33.72139689258554
tp203
a(F9.881
F20.4776668170975
tp204
a(F0.361
F11.864016550593078
tp205
a(F34.936
F11.453367626971819
tp206
a(F5.381
F26.187288248488173
tp207
a(F14.531
F17.933645908297464
tp208
a(F1.342
F34.0313575190746
tp209
a(F45.294
F15.196929009989477
tp210
a(F0.364
F27.276347044497154
tp211
a(F9.917
F19.966217170899306
tp212
a(F0.332
F30.58380475676117
tp213
a(F0.132
F17.85729626135435
tp214
a(F57.016
F16.43560981079936
tp215
a(F63.888
F14.482099385645528
tp216
a(F0.354
F29.028867177951795
tp217
a(F0.381
F25.42024816171481
tp218
a(F0.112
F25.16592777484598
tp219
a(F0.337
F29.393542223538343
tp220
a(F0.354
F28.459864743340475
tp221
a(F58.138
F15.378915283399133
tp222
a(F0.343
F30.006989238783717
tp223
a(F3.045
F28.32114456565334
tp224
a(F9.893
F24.722372602886306
tp225
a(F0.357
F11.961525207743621
tp226
a(F34.892
F18.964760713822518
tp227
a(F3.106
F26.19069831001644
tp228
a(F5.242
F17.75839340994851
tp229
a(F0.322
F29.313755229760247
tp230
a(F45.218
F17.074175260459576
tp231
a(F0.154
F30.134704233720324
tp232
a(F9.96
F19.644049992426655
tp233
a(F0.14
F34.91277450401909
tp234
a(F0.32
F17.608879353269003
tp235
a(F57.008
F17.641444578580558
tp236
a(F63.867
F14.80610121621822
tp237
a(F0.181
F30.78338595866584
tp238
a(F0.153
F31.779457055318815
tp239
a(F0.3
F22.79038644180848
tp240
a(F0.318
F20.82842520567087
tp241
a(F0.098
F36.48819923400879
tp242
a(F58.158
F15.989916450917148
tp243
a(F0.094
F35.72266487505
tp244
a(F3.104
F33.35465120459692
tp245
a(F9.925
F24.564719694308362
tp246
a(F0.092
F24.08245004692043
tp247
a(F34.869
F18.89906202378468
tp248
a(F3.18
F28.003917767236437
tp249
a(F0.737
F15.571488685117892
tp250
a(F0.076
F38.449215942420636
tp251
a(F45.189
F16.10564112262084
tp252
a(F0.148
F30.05478180744327
tp253
a(F9.932
F19.298947357572615
tp254
a(F0.093
F34.447430349958054
tp255
a(F0.36
F17.93015716271475
tp256
a(F56.961
F16.036531963758172
tp257
a(F63.862
F14.576448293975913
tp258
a(F0.143
F30.48376026785431
tp259
a(F0.104
F31.876428143909344
tp260
a(F0.332
F23.035183971102995
tp261
a(F0.358
F20.36886098429274
tp262
a(F0.073
F34.77951183234556
tp263
a(F58.208
F15.344461118874069
tp264
a(F0.073
F35.10114741153442
tp265
a(F3.099
F32.947366041346235
tp266
a(F9.919
F25.700039328792347
tp267
a(F0.1
F24.709645573479627
tp268
a(F34.873
F18.913609347592754
tp269
a(F3.726
F28.125041641939717
tp270
a(F0.74
F15.99705809712983
tp271
a(F0.074
F37.353832789625116
tp272
a(F55.966
F14.847755347880033
tp273
a(F12.091
F16.673045182672258
tp274
a(F3.326
F16.664750061785945
tp275
a(F12.015
F17.432360385472958
tp276
a(F12.052
F18.14286094601266
tp277
a(F81.725
F14.599733572639526
tp278
a(F75.395
F13.690099652570028
tp279
a(F12.061
F17.101654834042375
tp280
a(F12.12
F16.365510989052172
tp281
a(F12.021
F21.98700680404615
tp282
a(F11.991
F19.49643458540623
tp283
a(F12.032
F17.217395330707614
tp284
a(F12.016
F17.058272030132894
tp285
a(F68.666
F14.523779086696987
tp286
a(F12.009
F16.868725557453356
tp287
a(F10.376
F22.636984163465407
tp288
a(F3.304
F19.639893039846076
tp289
a(F12.031
F12.337763491946344
tp290
a(F51.873
F16.402851250380852
tp291
a(F10.352
F20.93863452727405
tp292
a(F12.395
F17.131521467334377
tp293
a(F12.005
F17.288485277157562
tp294
a(F13.209
F17.343012458644807
tp295
a(F58.231
F11.730794564104425
tp296
a(F63.289
F12.091615683972263
tp297
a(F58.14
F11.945605099416124
tp298
a(F58.17
F12.796563822194003
tp299
a(F109.974
F14.029668491147458
tp300
a(F9.548
F16.718315969221294
tp301
a(F58.233
F11.762931210418733
tp302
a(F58.153
F11.533906584032453
tp303
a(F58.189
F16.917548251648743
tp304
a(F58.149
F15.714394315719032
tp305
a(F58.193
F12.38654026009429
tp306
a(F58.217
F11.79996501059773
tp307
a(F58.151
F12.085772299279387
tp308
a(F56.343
F20.526268989277575
tp309
a(F63.223
F14.767451135513301
tp310
a(F58.124
F11.426707995267442
tp311
a(F23.474
F17.112003113859547
tp312
a(F56.497
F15.262685088798976
tp313
a(F58.49
F12.279521502840977
tp314
a(F58.15
F12.046988603300774
tp315
a(F45.188
F16.77024070194994
tp316
a(F0.119
F30.073626414084664
tp317
a(F9.946
F19.763654860739525
tp318
a(F0.101
F35.164657983499076
tp319
a(F0.349
F16.47505041817203
tp320
a(F56.912
F16.71449471767992
tp321
a(F63.838
F14.818865375020183
tp322
a(F0.093
F31.500684718171563
tp323
a(F0.103
F32.617597885000016
tp324
a(F0.386
F23.653406439349055
tp325
a(F0.327
F20.823468645174916
tp326
a(F0.079
F34.54307317826897
tp327
a(F0.073
F35.819287733747984
tp328
a(F58.098
F16.223600544536914
tp329
a(F3.106
F33.37043759162323
tp330
a(F9.941
F25.353241220761376
tp331
a(F0.118
F24.552760735942194
tp332
a(F34.866
F19.3727511944106
tp333
a(F3.149
F28.45488874685879
tp334
a(F0.727
F16.25081020951844
tp335
a(F0.089
F37.08424278778526
tp336
a(F43.423
F16.926106428011106
tp337
a(F3.142
F15.70018321569436
tp338
a(F8.162
F19.98701447262787
tp339
a(F3.11
F16.841507061026416
tp340
a(F3.032
F20.985037764534354
tp341
a(F55.31
F18.16117433812469
tp342
a(F62.069
F14.081281104841484
tp343
a(F3.119
F14.98349146072108
tp344
a(F3.685
F15.563437047701042
tp345
a(F3.041
F28.07746162487624
tp346
a(F3.057
F21.650515112524424
tp347
a(F3.107
F16.423171137244655
tp348
a(F3.091
F17.007290857414212
tp349
a(F56.347
F16.21456564633319
tp350
a(F3.081
F15.873095645784186
tp351
a(F8.156
F26.143030261262677
tp352
a(F3.118
F12.902988535710252
tp353
a(F33.117
F20.102697387982445
tp354
a(F0.142
F26.601247794066484
tp355
a(F3.488
F17.348917306257555
tp356
a(F3.145
F16.455007812653022
tp357
a(F50.276
F16.153708107092164
tp358
a(F9.956
F17.017351250502873
tp359
a(F0.081
F22.15227415734394
tp360
a(F10.051
F17.506329321048476
tp361
a(F9.859
F19.65922225251173
tp362
a(F61.902
F16.690936146862803
tp363
a(F68.941
F14.820232888175683
tp364
a(F10.025
F17.202498205175456
tp365
a(F9.948
F16.83300737046044
tp366
a(F9.866
F27.388523782095447
tp367
a(F9.853
F20.78664555163546
tp368
a(F9.905
F17.518798399462618
tp369
a(F9.88
F17.7511926098642
tp370
a(F63.217
F17.25177574606443
tp371
a(F9.921
F17.586206701076165
tp372
a(F8.175
F35.08373208411715
tp373
a(F9.917
F13.809027756987648
tp374
a(F39.929
F18.63735514946959
tp375
a(F8.213
F25.244154260070488
tp376
a(F10.311
F18.339996952732857
tp377
a(F9.937
F18.094114054248415
tp378
a(F45.183
F8.754704787825736
tp379
a(F0.179
F30.11615833740395
tp380
a(F9.921
F11.768962633294555
tp381
a(F0.13
F12.325457537188553
tp382
a(F0.3
F12.017046763794497
tp383
a(F56.828
F6.599314811266959
tp384
a(F63.865
F7.707354426742173
tp385
a(F0.174
F30.77620024348681
tp386
a(F0.125
F30.621951137167905
tp387
a(F0.345
F12.370908546189849
tp388
a(F0.311
F11.787568550700179
tp389
a(F0.104
F32.805506783895765
tp390
a(F0.121
F34.17404579285245
tp391
a(F58.15
F7.147405595447008
tp392
a(F0.113
F33.114895953438605
tp393
a(F3.103
F13.371166188126573
tp394
a(F9.949
F12.603189631938362
tp395
a(F34.859
F10.209581619415145
tp396
a(F3.173
F12.181359734601127
tp397
a(F0.717
F12.109916794042174
tp398
a(F0.091
F36.05500241806014
tp399
a(F10.469
F18.783209703241784
tp400
a(F34.932
F14.385242794407532
tp401
a(F39.949
F14.873385291468972
tp402
a(F34.848
F15.077237775471682
tp403
a(F34.885
F15.09235184107508
tp404
a(F87.116
F14.883218497596681
tp405
a(F29.474
F15.543793738664439
tp406
a(F34.916
F13.433932207214335
tp407
a(F36.502
F14.097843950071061
tp408
a(F34.919
F21.274481119277578
tp409
a(F34.866
F18.296737948122125
tp410
a(F34.878
F14.851252188285192
tp411
a(F34.862
F14.339404561401656
tp412
a(F23.466
F19.293462166407455
tp413
a(F34.845
F14.051810392954698
tp414
a(F33.102
F24.494356018025428
tp415
a(F39.942
F18.074721859457593
tp416
a(F34.886
F12.69332851554888
tp417
a(F33.138
F18.573257194599137
tp418
a(F35.264
F14.398873994980628
tp419
a(F34.837
F14.891099520105248
tp420
a(F43.516
F16.165593068545256
tp421
a(F3.2
F15.28107164055109
tp422
a(F8.267
F19.621945392412062
tp423
a(F3.146
F16.906347913380998
tp424
a(F3.099
F19.365392813808285
tp425
a(F55.232
F18.780847621522845
tp426
a(F62.092
F14.937688996657156
tp427
a(F3.208
F15.692901073310237
tp428
a(F3.194
F14.277466148352968
tp429
a(F3.113
F24.74254563372009
tp430
a(F3.159
F20.943892881918984
tp431
a(F3.175
F16.764761719064644
tp432
a(F3.125
F15.909653104376048
tp433
a(F56.504
F16.923515125392722
tp434
a(F3.176
F15.981667671997387
tp435
a(F0.126
F28.880072278901935
tp436
a(F8.17
F24.066498005404494
tp437
a(F3.224
F12.485701803834392
tp438
a(F33.201
F19.9764148913897
tp439
a(F3.564
F17.1630321325591
tp440
a(F3.156
F16.360320110948614
tp441
a(F45.585
F16.756152359176088
tp442
a(F0.787
F14.658524745397948
tp443
a(F10.332
F18.585294658318162
tp444
a(F0.765
F14.693366600454532
tp445
a(F5.223
F18.820875213481486
tp446
a(F123.09
F18.1154432406649
tp447
a(F70.741
F14.591495346557348
tp448
a(F0.796
F14.242516863498498
tp449
a(F0.72
F13.151610103689812
tp450
a(F5.201
F28.976187307556923
tp451
a(F5.198
F21.965010640550066
tp452
a(F0.715
F14.725131787359715
tp453
a(F0.736
F14.148343795741146
tp454
a(F58.483
F16.316874407739803
tp455
a(F0.829
F14.431037917479195
tp456
a(F3.487
F33.12173921123824
tp457
a(F19.098
F23.39213130902499
tp458
a(F0.765
F10.4910871907222
tp459
a(F35.29
F19.534327977421608
tp460
a(F3.545
F26.481347914192487
tp461
a(F0.73
F14.441618284718556
tp462
a(F45.189
F17.121925544208633
tp463
a(F0.158
F29.992567372436707
tp464
a(F9.915
F18.949227541828385
tp465
a(F0.09
F35.58655528867474
tp466
a(F0.356
F17.098456146777608
tp467
a(F57.021
F17.65678359679878
tp468
a(F63.832
F14.701211453988575
tp469
a(F0.198
F30.45691004768014
tp470
a(F0.163
F30.719493269633787
tp471
a(F0.365
F23.2705840875323
tp472
a(F0.298
F20.274511145499464
tp473
a(F0.091
F35.1093343910403
tp474
a(F0.081
F36.4387286247399
tp475
a(F58.164
F15.88077135835416
tp476
a(F0.075
F36.303265078638034
tp477
a(F3.138
F34.435164214756625
tp478
a(F9.921
F25.527379509133215
tp479
a(F0.136
F24.981977962172376
tp480
a(F34.853
F19.738472637362204
tp481
a(F3.159
F27.40650848743434
tp482
a(F0.735
F16.147490012029614
tp483
a.