(lp0
(F45.203
F12.763951282345635
tp1
a(F50.307
F10.311116568963318
tp2
a(F45.174
F13.55714232677265
tp3
a(F45.165
F11.551904423428434
tp4
a(F97.082
F12.440139124762606
tp5
a(F19.234
F14.703727196902037
tp6
a(F45.205
F13.457340421970002
tp7
a(F45.238
F13.230593800106469
tp8
a(F45.259
F12.265516433481347
tp9
a(F45.201
F18.604009117438075
tp10
a(F45.231
F16.375403408782887
tp11
a(F45.195
F13.299755158341107
tp12
a(F45.192
F13.586645433514873
tp13
a(F13.201
F16.96572840339778
tp14
a(F45.164
F13.481818907948977
tp15
a(F43.429
F21.264413289780563
tp16
a(F50.258
F13.94073033573873
tp17
a(F45.193
F2.4524639111340925
tp18
a(F10.481
F16.931129207889384
tp19
a(F43.497
F18.192790586556143
tp20
a(F45.614
F11.92870092709713
tp21
a(F45.192
F13.295111277414595
tp22
a(F45.179
F14.57562405243516
tp23
a(F10.249
F13.497533382409635
tp24
a(F0.134
F33.31203346009202
tp25
a(F0.374
F5.104658943787217
tp26
a(F57.051
F18.397776351931196
tp27
a(F63.904
F12.95546851728988
tp28
a(F0.122
F32.94608540064655
tp29
a(F0.155
F29.61780331672772
tp30
a(F0.189
F30.111558617147452
tp31
a(F0.373
F23.84845620306099
tp32
a(F0.387
F19.730601291172206
tp33
a(F0.094
F33.54700585241046
tp34
a(F0.154
F33.12630606201642
tp35
a(F58.274
F14.403986974509762
tp36
a(F0.374
F32.7557811967152
tp37
a(F3.155
F27.839647939812174
tp38
a(F10.009
F20.751846742432782
tp39
a(F0.172
F26.478020698927782
tp40
a(F34.93
F16.93460557500229
tp41
a(F3.265
F26.88608612711815
tp42
a(F0.777
F14.38430624148425
tp43
a(F0.148
F34.1772626562811
tp44
a(F50.31
F14.125251745167924
tp45
a(F9.983
F13.338969168645379
tp46
a(F9.903
F14.8394432467305
tp47
a(F9.888
F12.392363119870424
tp48
a(F61.87
F15.72877923383688
tp49
a(F68.921
F12.501050335208053
tp50
a(F9.93
F14.927184003056027
tp51
a(F10.026
F14.812701272519512
tp52
a(F9.961
F12.99149311116586
tp53
a(F9.907
F23.674457330452768
tp54
a(F9.894
F16.99490123291157
tp55
a(F9.924
F14.854018672026301
tp56
a(F9.914
F14.651707142983613
tp57
a(F63.268
F10.2108317978288
tp58
a(F9.926
F14.295430435259876
tp59
a(F8.174
F25.974165074037092
tp60
a(F0.087
F30.86108558399505
tp61
a(F9.93
F2.629136769514945
tp62
a(F39.944
F16.327861693736754
tp63
a(F8.214
F21.592324584820553
tp64
a(F10.348
F15.206497962978718
tp65
a(F11.509
F14.197082441643273
tp66
a(F45.147
F15.244548953914395
tp67
a(F0.119
F28.872638586516445
tp68
a(F9.933
F12.797412955643315
tp69
a(F0.318
F2.6052694846210733
tp70
a(F56.936
F18.05428812590738
tp71
a(F63.871
F12.775712774083432
tp72
a(F0.088
F36.71103012515232
tp73
a(F0.164
F29.559631547596503
tp74
a(F0.108
F27.749911257556004
tp75
a(F0.311
F24.58466752209804
tp76
a(F0.286
F20.59684924541139
tp77
a(F0.11
F32.5932165523991
tp78
a(F0.09
F35.316077972419166
tp79
a(F58.194
F16.76051194725656
tp80
a(F0.107
F31.93473150752681
tp81
a(F3.081
F28.475250884596456
tp82
a(F9.941
F21.843567768732708
tp83
a(F0.232
F6.832215718532863
tp84
a(F34.886
F17.349091657178683
tp85
a(F3.14
F26.929350227362622
tp86
a(F0.716
F14.254427274482119
tp87
a(F0.13
F36.27929855990959
tp88
a(F45.171
F15.673134974824885
tp89
a(F0.341
F8.524239889501283
tp90
a(F9.901
F10.14017899055034
tp91
a(F0.327
F6.250981875850509
tp92
a(F56.997
F14.511655798181891
tp93
a(F63.824
F13.639926732517779
tp94
a(F0.362
F5.269134450331331
tp95
a(F0.322
F5.623964235031356
tp96
a(F0.156
F10.245494102593511
tp97
a(F0.313
F6.5461327456869185
tp98
a(F0.314
F4.996899139912178
tp99
a(F58.138
F10.378414732248833
tp100
a(F0.31
F7.157858255784959
tp101
a(F3.039
F15.244705245209238
tp102
a(F9.872
F17.983364287608612
tp103
a(F34.897
F17.262665833501767
tp104
a(F3.083
F10.917035386587182
tp105
a(F5.209
F16.099043839766335
tp106
a(F0.33
F8.813422943620632
tp107
a(F97.294
F7.696157840080559
tp108
a(F57.025
F12.730519479394637
tp109
a(F61.911
F10.461077946661549
tp110
a(F57.098
F12.969342114657842
tp111
a(F57.043
F10.277756365947425
tp112
a(F115.951
F7.19818761843172
tp113
a(F56.834
F12.653606400825083
tp114
a(F56.928
F12.571209609254517
tp115
a(F57.114
F10.88864901932803
tp116
a(F57.129
F17.07032709805803
tp117
a(F57.109
F15.49699882638048
tp118
a(F57.107
F12.771862628700381
tp119
a(F57.014
F12.251784026792103
tp120
a(F110.018
F9.281667868945409
tp121
a(F57.019
F12.222745886749841
tp122
a(F55.237
F21.764180495996367
tp123
a(F61.905
F13.422171538865024
tp124
a(F56.804
F2.792580547911877
tp125
a(F86.932
F12.162910798733884
tp126
a(F55.382
F17.31490858347917
tp127
a(F57.372
F8.256245690821247
tp128
a(F57.042
F12.744411114772612
tp129
a(F19.233
F14.369188460630967
tp130
a(F63.905
F10.54404422454536
tp131
a(F68.903
F8.623383502585485
tp132
a(F63.839
F11.597601661129909
tp133
a(F63.857
F8.520586220414511
tp134
a(F115.817
F10.700821550816976
tp135
a(F63.846
F11.47927508992143
tp136
a(F63.912
F11.407495930955251
tp137
a(F63.89
F10.24295066454215
tp138
a(F63.886
F15.180937406442622
tp139
a(F63.84
F13.12850659011918
tp140
a(F63.844
F10.95502437897684
tp141
a(F63.842
F10.801503586801974
tp142
a(F9.558
F16.41786001863725
tp143
a(F63.844
F11.310861609109184
tp144
a(F62.075
F17.172607729485367
tp145
a(F68.924
F10.392210444818963
tp146
a(F63.883
F1.996117699611932
tp147
a(F29.502
F14.266436657977893
tp148
a(F62.11
F15.616434459026683
tp149
a(F64.245
F9.805554935051237
tp150
a(F63.808
F11.386728874352926
tp151
a(F45.173
F15.316944499034435
tp152
a(F0.119
F29.63204807206057
tp153
a(F9.928
F14.271834816550836
tp154
a(F0.11
F35.43427539500408
tp155
a(F56.854
F19.063029557000846
tp156
a(F63.829
F12.84164130105637
tp157
a(F0.116
F29.127365647116676
tp158
a(F0.098
F29.4001646671677
tp159
a(F0.322
F25.051510017132387
tp160
a(F0.31
F20.58270212356001
tp161
a(F0.095
F34.202727564261295
tp162
a(F0.075
F36.71019651205279
tp163
a(F58.16
F16.320094408583827
tp164
a(F0.085
F35.78012063796632
tp165
a(F3.08
F34.52680873894133
tp166
a(F9.904
F22.131199345574714
tp167
a(F0.138
F5.8175220971461385
tp168
a(F34.889
F17.129563866881654
tp169
a(F3.108
F27.653483579633757
tp170
a(F0.725
F14.730424902169034
tp171
a(F0.107
F37.1465423728805
tp172
a(F45.224
F15.242272746584872
tp173
a(F0.251
F28.76146776853677
tp174
a(F10.024
F13.959746853667585
tp175
a(F0.196
F34.317212985499815
tp176
a(F0.339
F5.121839109249413
tp177
a(F71.364
F18.398453431436792
tp178
a(F63.966
F13.06671962996616
tp179
a(F0.154
F33.221900272299536
tp180
a(F0.215
F29.944927623714594
tp181
a(F0.34
F24.77581693549805
tp182
a(F0.35
F20.681442779981914
tp183
a(F0.154
F34.42161110503709
tp184
a(F0.148
F35.074609452749
tp185
a(F58.223
F14.334837456781637
tp186
a(F0.14
F31.79631348682896
tp187
a(F3.111
F29.005489811027314
tp188
a(F10.024
F21.66995828275514
tp189
a(F0.141
F26.885186721680356
tp190
a(F34.97
F17.218192571445424
tp191
a(F3.162
F27.283341213732083
tp192
a(F0.828
F14.46721956796725
tp193
a(F0.171
F35.7571720265619
tp194
a(F45.271
F13.793138018370989
tp195
a(F0.178
F29.168957241208236
tp196
a(F9.945
F12.67659808810362
tp197
a(F0.118
F30.03453287411043
tp198
a(F0.41
F4.257308814302087
tp199
a(F57.074
F16.296623842480283
tp200
a(F63.861
F10.986876903430504
tp201
a(F0.098
F32.12322871189099
tp202
a(F0.22
F29.46713714449502
tp203
a(F0.41
F22.310420348911602
tp204
a(F0.455
F19.3718291827861
tp205
a(F0.096
F32.94503040661049
tp206
a(F0.085
F34.24225498160676
tp207
a(F58.209
F14.753307683667277
tp208
a(F0.099
F31.59590926404823
tp209
a(F3.146
F22.6048056055956
tp210
a(F9.973
F19.85941577719196
tp211
a(F0.174
F26.878062422716003
tp212
a(F34.942
F15.139272034606513
tp213
a(F3.19
F24.68778081106789
tp214
a(F0.793
F13.26034792134648
tp215
a(F0.106
F34.48533912830274
tp216
a(F45.22
F11.988064961216878
tp217
a(F0.356
F26.074684877181426
tp218
a(F9.899
F11.140657862182707
tp219
a(F0.31
F31.183299017953686
tp220
a(F0.148
F11.389476521251103
tp221
a(F56.991
F13.107349207159132
tp222
a(F63.874
F10.01846415962791
tp223
a(F0.327
F30.33684298733715
tp224
a(F0.449
F28.3648234809516
tp225
a(F0.325
F29.042670471780003
tp226
a(F0.103
F20.589794541010633
tp227
a(F1.957
F31.502463781042024
tp228
a(F0.625
F31.928994718764443
tp229
a(F58.138
F7.4983399484772235
tp230
a(F0.301
F30.71348929865053
tp231
a(F3.048
F30.90185808687238
tp232
a(F9.881
F17.53839011536911
tp233
a(F0.361
F1.3127900710096583
tp234
a(F34.936
F14.372822428646032
tp235
a(F5.381
F26.369330279529095
tp236
a(F14.531
F15.749105799477547
tp237
a(F1.342
F31.331873213872313
tp238
a(F45.294
F13.59605036337713
tp239
a(F0.364
F27.97102813486402
tp240
a(F9.917
F14.24002181302364
tp241
a(F0.332
F30.53288591715197
tp242
a(F0.132
F5.564590933422248
tp243
a(F57.016
F16.547108916177724
tp244
a(F63.888
F12.785761025440143
tp245
a(F0.315
F30.01669898314867
tp246
a(F0.354
F27.760556966556532
tp247
a(F0.381
F25.107985155509883
tp248
a(F0.112
F24.43146549483859
tp249
a(F0.337
F30.04786000479209
tp250
a(F0.354
F29.624007105141093
tp251
a(F58.138
F15.782756756500978
tp252
a(F0.343
F30.168973202474024
tp253
a(F3.045
F25.77670385404245
tp254
a(F9.893
F21.670478025451303
tp255
a(F0.357
F9.002609517670384
tp256
a(F34.892
F16.721434108373757
tp257
a(F3.106
F27.24211676374666
tp258
a(F5.242
F15.91561777267213
tp259
a(F0.322
F31.466394708883996
tp260
a(F45.218
F14.402637423235266
tp261
a(F0.154
F30.22876212943126
tp262
a(F9.96
F13.36386229040929
tp263
a(F0.14
F36.760048674264304
tp264
a(F0.32
F2.8816461979877204
tp265
a(F57.008
F18.29599831183441
tp266
a(F63.867
F13.117122573065846
tp267
a(F0.151
F37.013834745041095
tp268
a(F0.181
F30.76410609319368
tp269
a(F0.153
F30.278058588723926
tp270
a(F0.3
F25.260247164460665
tp271
a(F0.318
F20.800368058702183
tp272
a(F0.098
F37.11456577164225
tp273
a(F58.158
F13.80670624067459
tp274
a(F0.094
F32.78798160153545
tp275
a(F3.104
F28.211085038752678
tp276
a(F9.925
F21.90240068892565
tp277
a(F0.092
F27.350677514667897
tp278
a(F34.869
F17.718951756408547
tp279
a(F3.18
F27.56582571307404
tp280
a(F0.737
F14.007924012730227
tp281
a(F0.076
F37.813483395723296
tp282
a(F45.189
F14.428555964327911
tp283
a(F0.148
F29.601088993580024
tp284
a(F9.932
F13.5625033761539
tp285
a(F0.093
F35.19651463271721
tp286
a(F0.36
F4.172270135488361
tp287
a(F56.961
F18.872961984016
tp288
a(F63.862
F13.03613125346601
tp289
a(F0.107
F35.38885899307206
tp290
a(F0.143
F30.489480309188366
tp291
a(F0.104
F30.165033311199615
tp292
a(F0.332
F25.037860163816195
tp293
a(F0.358
F20.81079924851656
tp294
a(F0.073
F34.640918335548655
tp295
a(F58.208
F14.71464791910394
tp296
a(F0.073
F35.15751242177451
tp297
a(F3.099
F30.138773564249277
tp298
a(F9.919
F21.777279193951365
tp299
a(F0.1
F26.716524516780147
tp300
a(F34.873
F17.488291070851332
tp301
a(F3.726
F27.549617086153695
tp302
a(F0.74
F13.795611549716662
tp303
a(F0.074
F37.54764525734765
tp304
a(F55.966
F10.661125401199302
tp305
a(F12.091
F10.586463181466302
tp306
a(F3.326
F2.929591373788814
tp307
a(F12.015
F10.88217698032146
tp308
a(F12.052
F7.594510415568948
tp309
a(F81.725
F10.03445272020657
tp310
a(F75.395
F11.205122706644675
tp311
a(F12.005
F11.734574791742489
tp312
a(F12.061
F12.711462078177753
tp313
a(F12.12
F10.548468254944858
tp314
a(F12.021
F13.716602388111983
tp315
a(F11.991
F13.374927767497653
tp316
a(F12.032
F12.373817662270191
tp317
a(F12.016
F11.54964773482917
tp318
a(F68.666
F8.385014868505737
tp319
a(F12.009
F12.158709045883048
tp320
a(F10.376
F13.872221778749543
tp321
a(F3.304
F10.516577299827567
tp322
a(F12.031
F3.31103057573166
tp323
a(F51.873
F12.412403262877728
tp324
a(F10.352
F16.79763736877152
tp325
a(F12.395
F13.414270613068606
tp326
a(F12.005
F11.369757083299405
tp327
a(F13.209
F13.820083455949584
tp328
a(F58.231
F11.444452324663015
tp329
a(F63.289
F9.623683666262556
tp330
a(F58.14
F11.773456432034864
tp331
a(F58.17
F10.998064510391227
tp332
a(F109.974
F13.180286411365325
tp333
a(F9.548
F14.889160273432294
tp334
a(F58.172
F11.179076851112768
tp335
a(F58.233
F10.545201677226407
tp336
a(F58.153
F10.786954612964216
tp337
a(F58.189
F15.957782273509485
tp338
a(F58.149
F14.126922936288311
tp339
a(F58.193
F11.922292009215145
tp340
a(F58.217
F11.748841156854349
tp341
a(F58.151
F11.593905803144855
tp342
a(F56.343
F19.593225599047454
tp343
a(F63.223
F11.667564727092053
tp344
a(F58.124
F2.951883700566695
tp345
a(F23.474
F14.394259559100165
tp346
a(F56.497
F16.049980970209134
tp347
a(F58.49
F10.56153235874851
tp348
a(F58.15
F11.446865679915337
tp349
a(F45.188
F15.144327549108615
tp350
a(F0.119
F29.71519211669349
tp351
a(F9.946
F13.38891395015849
tp352
a(F0.101
F35.56855106529676
tp353
a(F0.349
F3.409167606694003
tp354
a(F56.912
F18.429404988496874
tp355
a(F63.838
F12.811567282821569
tp356
a(F0.065
F36.17617737571709
tp357
a(F0.093
F30.22309897141531
tp358
a(F0.103
F31.03083193146934
tp359
a(F0.386
F25.017064090145546
tp360
a(F0.327
F21.23533355558498
tp361
a(F0.079
F31.243614591244196
tp362
a(F0.073
F36.794820299061634
tp363
a(F58.098
F16.16873761954614
tp364
a(F3.106
F31.745019474946375
tp365
a(F9.941
F22.0803219396621
tp366
a(F0.118
F27.850952566808296
tp367
a(F34.866
F17.701945518091733
tp368
a(F3.149
F28.063061197805737
tp369
a(F0.727
F14.195939186132616
tp370
a(F0.089
F37.42553020429073
tp371
a(F43.423
F14.847432858091505
tp372
a(F3.142
F14.906615037361489
tp373
a(F8.162
F12.141714915468851
tp374
a(F3.11
F16.499997751732522
tp375
a(F3.032
F4.8898098744185905
tp376
a(F55.31
F21.001458379355345
tp377
a(F62.069
F12.558204651755446
tp378
a(F3.089
F15.092931326827966
tp379
a(F3.119
F15.78390864321195
tp380
a(F3.685
F15.570025463879574
tp381
a(F3.041
F23.786797489970922
tp382
a(F3.057
F18.540820413871725
tp383
a(F3.107
F16.81881748343585
tp384
a(F3.091
F15.997687286368626
tp385
a(F56.347
F18.254179719780737
tp386
a(F3.081
F16.517906308776755
tp387
a(F8.156
F21.76037284375771
tp388
a(F3.118
F3.281513549139102
tp389
a(F33.117
F16.81689116714851
tp390
a(F0.142
F24.64848831904066
tp391
a(F3.488
F16.136708954130025
tp392
a(F3.145
F16.803373937659405
tp393
a(F50.276
F12.85863715026062
tp394
a(F9.956
F16.54725816840073
tp395
a(F0.081
F21.606375360570382
tp396
a(F10.051
F16.435957211826462
tp397
a(F9.859
F13.561229444774133
tp398
a(F61.902
F18.465560375805943
tp399
a(F68.941
F12.768145023554098
tp400
a(F9.912
F17.50061632960569
tp401
a(F10.025
F15.515820023429114
tp402
a(F9.948
F15.678383554972243
tp403
a(F9.866
F25.013680850388482
tp404
a(F9.853
F19.245075743005145
tp405
a(F9.905
F15.960696028720122
tp406
a(F9.88
F16.766140173072927
tp407
a(F63.217
F10.559266798136134
tp408
a(F9.921
F16.53235770831816
tp409
a(F8.175
F33.76398474810412
tp410
a(F9.917
F5.746875515382271
tp411
a(F39.929
F16.809311155462638
tp412
a(F8.213
F23.11409361026017
tp413
a(F10.311
F16.85948549892055
tp414
a(F9.937
F16.544993881019764
tp415
a(F45.183
F8.611669803794939
tp416
a(F0.179
F29.765249106868662
tp417
a(F9.921
F12.124075759037892
tp418
a(F0.13
F12.868300537578762
tp419
a(F0.3
F11.89406715360071
tp420
a(F56.828
F8.092628298157996
tp421
a(F63.865
F7.385217712918187
tp422
a(F0.099
F12.40660352515988
tp423
a(F0.174
F29.463802491838578
tp424
a(F0.125
F30.515165701398956
tp425
a(F0.345
F11.91078307791887
tp426
a(F0.311
F12.346286207601866
tp427
a(F0.104
F34.27905585786657
tp428
a(F0.121
F36.31883381170166
tp429
a(F58.15
F9.445646290393437
tp430
a(F0.113
F33.50914503809284
tp431
a(F3.103
F13.053813743350261
tp432
a(F9.949
F13.331925779252368
tp433
a(F34.859
F8.677334936684929
tp434
a(F3.173
F12.706152524799109
tp435
a(F0.717
F10.401868985034525
tp436
a(F0.091
F36.552670211586005
tp437
a(F10.469
F16.05469773140024
tp438
a(F34.932
F14.414258600979606
tp439
a(F39.949
F12.17587913972709
tp440
a(F34.848
F14.27896205401596
tp441
a(F34.885
F12.444520079530776
tp442
a(F87.116
F15.615952028723603
tp443
a(F29.474
F14.48257440043723
tp444
a(F34.861
F14.763304416439496
tp445
a(F34.916
F14.967448947732063
tp446
a(F36.502
F13.517304105848511
tp447
a(F34.919
F20.21102714713882
tp448
a(F34.866
F17.658513791749584
tp449
a(F34.878
F14.614427267190289
tp450
a(F34.862
F14.42295607310884
tp451
a(F23.466
F15.318098892293433
tp452
a(F34.845
F14.833891494637903
tp453
a(F33.102
F24.283311611370127
tp454
a(F39.942
F15.668024988078018
tp455
a(F34.886
F5.90376354945714
tp456
a(F33.138
F20.18761056321947
tp457
a(F35.264
F13.079176812870976
tp458
a(F34.837
F15.121763058390249
tp459
a(F43.516
F15.01809227910331
tp460
a(F3.2
F14.733631448871973
tp461
a(F8.267
F13.289771932228986
tp462
a(F3.146
F16.939584573058205
tp463
a(F3.099
F5.617757576983422
tp464
a(F55.232
F18.011828159059707
tp465
a(F62.092
F12.590014005855968
tp466
a(F3.12
F16.85047295084223
tp467
a(F3.208
F16.19801045374738
tp468
a(F3.194
F16.552067995940646
tp469
a(F3.113
F23.3381722344396
tp470
a(F3.159
F19.8918560414782
tp471
a(F3.175
F16.67761528874851
tp472
a(F3.125
F16.539347054126363
tp473
a(F56.504
F14.507800326463492
tp474
a(F3.176
F16.741347738593404
tp475
a(F0.126
F24.860459548938607
tp476
a(F8.17
F20.350329225210267
tp477
a(F3.224
F1.60115059598216
tp478
a(F33.201
F17.11989702936262
tp479
a(F3.564
F16.21539069624204
tp480
a(F3.156
F16.759757065162475
tp481
a(F45.585
F14.048091138538439
tp482
a(F0.787
F11.00797444724423
tp483
a(F10.332
F12.753167200484313
tp484
a(F0.765
F12.32565161991207
tp485
a(F5.223
F7.954123588678028
tp486
a(F123.09
F17.424357186816632
tp487
a(F70.741
F12.832963062392082
tp488
a(F0.714
F11.391188479377888
tp489
a(F0.796
F11.04221096563646
tp490
a(F0.72
F9.956077473412734
tp491
a(F5.201
F23.461525442253333
tp492
a(F5.198
F17.6315232243608
tp493
a(F0.715
F11.66789672852439
tp494
a(F0.736
F12.710877054316157
tp495
a(F58.483
F16.29091539880028
tp496
a(F0.829
F12.107905894408331
tp497
a(F3.487
F23.839938578312285
tp498
a(F19.098
F20.14449110958958
tp499
a(F0.765
F1.8736006756528065
tp500
a(F35.29
F15.757506295631174
tp501
a(F3.545
F21.141275084467935
tp502
a(F0.73
F10.486408183467574
tp503
a(F45.189
F15.21558246400673
tp504
a(F0.158
F29.172478646214586
tp505
a(F9.915
F13.435860228505643
tp506
a(F0.09
F35.841713639140565
tp507
a(F57.021
F18.978996332311496
tp508
a(F63.832
F12.172332194226328
tp509
a(F0.086
F35.47147867374588
tp510
a(F0.198
F30.37461136310594
tp511
a(F0.163
F30.85431567678461
tp512
a(F0.365
F25.48244531993987
tp513
a(F0.298
F20.337593455470223
tp514
a(F0.091
F35.00109105888987
tp515
a(F0.081
F36.61571337090572
tp516
a(F58.164
F13.231868766772095
tp517
a(F0.075
F34.43464028073804
tp518
a(F3.138
F27.392558504245244
tp519
a(F9.921
F22.039002861187328
tp520
a(F0.136
F26.748697777744383
tp521
a(F34.853
F17.810860664059874
tp522
a(F3.159
F27.033792304149006
tp523
a(F0.735
F13.830300164758228
tp524
a.