(lp0
(F45.203
F20.291960231095022
tp1
a(F50.307
F17.33561314356824
tp2
a(F45.174
F26.311567027059695
tp3
a(F45.165
F18.962214501840727
tp4
a(F97.082
F14.131433623739415
tp5
a(F19.234
F17.796867244810397
tp6
a(F45.205
F27.46248331091677
tp7
a(F45.238
F21.810470687358507
tp8
a(F45.259
F24.21666313348604
tp9
a(F45.201
F23.125825336269504
tp10
a(F45.231
F16.79486818847557
tp11
a(F45.195
F27.00866661860297
tp12
a(F45.192
F26.02571979196121
tp13
a(F13.201
F20.076215485177404
tp14
a(F45.164
F27.05216775064667
tp15
a(F43.429
F27.75339716027624
tp16
a(F50.258
F24.821355434866355
tp17
a(F45.193
F26.16281917930714
tp18
a(F10.481
F23.14132312918082
tp19
a(F43.497
F21.464809411702056
tp20
a(F45.614
F20.908639137203302
tp21
a(F45.192
F27.58173780994756
tp22
a(F45.179
F19.02781325869043
tp23
a(F10.249
F20.50159108096405
tp24
a(F0.134
F31.64664666294394
tp25
a(F0.374
F21.485032021467173
tp26
a(F57.051
F21.766466465685518
tp27
a(F63.904
F17.107374233135488
tp28
a(F0.122
F31.111754201485642
tp29
a(F0.155
F28.320853040005794
tp30
a(F0.189
F28.881717295057197
tp31
a(F0.373
F25.671405352128204
tp32
a(F0.387
F18.195576762314886
tp33
a(F0.094
F31.09185914410388
tp34
a(F0.154
F32.63997377657934
tp35
a(F58.274
F16.284158333916874
tp36
a(F0.374
F32.77591551243163
tp37
a(F3.155
F34.33699753776412
tp38
a(F10.009
F30.460342962644063
tp39
a(F0.172
F26.048282296889845
tp40
a(F34.93
F21.488823006148724
tp41
a(F3.265
F19.798656262950423
tp42
a(F0.777
F26.675215067590276
tp43
a(F0.148
F34.863351476762226
tp44
a(F50.31
F17.911232928157244
tp45
a(F9.983
F21.678343045664953
tp46
a(F9.903
F35.23333551012911
tp47
a(F9.888
F21.507472352523887
tp48
a(F61.87
F19.71838867299569
tp49
a(F68.921
F16.367952588852496
tp50
a(F9.93
F34.366901040426455
tp51
a(F10.026
F24.58395700287074
tp52
a(F9.961
F26.91862418811376
tp53
a(F9.907
F29.39920411631465
tp54
a(F9.894
F22.32580797402188
tp55
a(F9.924
F33.19193215826526
tp56
a(F9.914
F34.0219749642536
tp57
a(F63.268
F16.373902699770404
tp58
a(F9.926
F33.141856202762575
tp59
a(F8.174
F33.64578626649454
tp60
a(F0.087
F26.16278232759796
tp61
a(F9.93
F30.336008192785084
tp62
a(F39.944
F21.114005616866052
tp63
a(F8.214
F18.650197714706884
tp64
a(F10.348
F26.0609718221975
tp65
a(F11.509
F36.45437107635662
tp66
a(F45.147
F17.44290394076195
tp67
a(F0.119
F27.45840322226286
tp68
a(F9.933
F19.414095677631465
tp69
a(F0.318
F21.328970973246864
tp70
a(F56.936
F20.903591196222063
tp71
a(F63.871
F15.030367418192327
tp72
a(F0.088
F31.67555585131049
tp73
a(F0.164
F28.015040955702332
tp74
a(F0.108
F29.078801004474776
tp75
a(F0.311
F25.781236839235614
tp76
a(F0.286
F19.260263588181452
tp77
a(F0.11
F28.87191084904694
tp78
a(F0.09
F30.017286900332884
tp79
a(F58.194
F16.749267651797517
tp80
a(F0.107
F30.422039383679238
tp81
a(F3.081
F32.261007269599325
tp82
a(F9.941
F29.99117703755435
tp83
a(F0.232
F26.432813863613102
tp84
a(F34.886
F21.89678614322717
tp85
a(F3.14
F14.130795722043043
tp86
a(F0.716
F24.03839588030759
tp87
a(F0.13
F32.654838660977
tp88
a(F45.171
F18.793533932816768
tp89
a(F0.341
F23.88077666823353
tp90
a(F9.901
F20.598645736330322
tp91
a(F0.327
F35.27025943688516
tp92
a(F56.997
F21.102657452225685
tp93
a(F63.824
F12.283126746703472
tp94
a(F0.362
F31.44905091901975
tp95
a(F0.322
F35.52690448412405
tp96
a(F0.156
F22.700349868275225
tp97
a(F0.161
F19.160057443593228
tp98
a(F0.313
F31.562804129506862
tp99
a(F0.314
F32.24674797217761
tp100
a(F58.138
F18.051863381239986
tp101
a(F0.31
F31.894588003866374
tp102
a(F3.039
F31.295666981887603
tp103
a(F9.872
F30.620570392613963
tp104
a(F0.315
F28.277389235528453
tp105
a(F34.897
F22.386045943280415
tp106
a(F3.083
F18.553398504720203
tp107
a(F5.209
F26.226135393604636
tp108
a(F0.33
F34.24692894332111
tp109
a(F97.294
F15.689960266153017
tp110
a(F57.025
F19.016023377680945
tp111
a(F61.911
F17.523008659068083
tp112
a(F57.098
F26.039716318560142
tp113
a(F57.043
F22.490775267593563
tp114
a(F115.951
F14.07492783272432
tp115
a(F56.834
F28.046910524833947
tp116
a(F56.928
F22.030084246562588
tp117
a(F57.114
F21.50447788907008
tp118
a(F57.129
F23.32443144410435
tp119
a(F57.109
F15.223054162537059
tp120
a(F57.107
F26.581244108577568
tp121
a(F57.014
F24.05113532859832
tp122
a(F110.018
F12.717247927768362
tp123
a(F57.019
F27.632888826748562
tp124
a(F55.237
F24.73690709564835
tp125
a(F61.905
F24.74694566294137
tp126
a(F56.804
F24.939183325610227
tp127
a(F86.932
F18.66005304735154
tp128
a(F55.382
F20.41615728257845
tp129
a(F57.372
F22.93461461003042
tp130
a(F57.042
F27.419395822928184
tp131
a(F19.233
F20.845168765700823
tp132
a(F63.905
F17.94081068225205
tp133
a(F68.903
F15.88064823791917
tp134
a(F63.839
F24.759121790461773
tp135
a(F63.857
F17.45807627056326
tp136
a(F115.817
F14.53085850758685
tp137
a(F63.846
F25.379047747546185
tp138
a(F63.912
F17.565870651110476
tp139
a(F63.89
F20.19885277528582
tp140
a(F63.886
F20.050657663427824
tp141
a(F63.84
F16.095554411677377
tp142
a(F63.844
F23.741772696309322
tp143
a(F63.842
F23.490808933574176
tp144
a(F9.558
F18.926252765514487
tp145
a(F63.844
F25.154749104553566
tp146
a(F62.075
F25.364565249465937
tp147
a(F68.924
F22.65500835016636
tp148
a(F63.883
F23.377335764866853
tp149
a(F29.502
F22.641498589422554
tp150
a(F62.11
F18.945930622784154
tp151
a(F64.245
F20.108312998038645
tp152
a(F63.808
F24.357793387690826
tp153
a(F45.173
F19.13891069644264
tp154
a(F0.119
F26.909954955269182
tp155
a(F9.928
F18.163010388745793
tp156
a(F0.11
F29.970426725755846
tp157
a(F56.854
F19.28538754755365
tp158
a(F63.829
F16.93915757949331
tp159
a(F0.116
F25.083424217466796
tp160
a(F0.098
F27.000918840457285
tp161
a(F0.322
F26.377234188573702
tp162
a(F0.31
F19.743308928529068
tp163
a(F0.095
F32.42470382433385
tp164
a(F0.075
F31.87302125165505
tp165
a(F58.16
F16.056578975703037
tp166
a(F0.085
F31.37780313739287
tp167
a(F3.08
F34.096396897653385
tp168
a(F9.904
F29.848507427344366
tp169
a(F0.138
F27.222746661332035
tp170
a(F34.889
F22.783234405176092
tp171
a(F3.108
F15.296919410915248
tp172
a(F0.725
F25.71098831468927
tp173
a(F0.107
F32.457349225878716
tp174
a(F45.224
F18.424085131671745
tp175
a(F0.251
F24.370516632508952
tp176
a(F10.024
F18.05565171741182
tp177
a(F0.196
F32.190303154697176
tp178
a(F0.339
F21.40186895629657
tp179
a(F71.364
F21.383059704396874
tp180
a(F63.966
F15.660899221315049
tp181
a(F0.154
F33.57834430384849
tp182
a(F0.215
F28.794484674057458
tp183
a(F0.34
F26.91730225062929
tp184
a(F0.35
F19.786337870988064
tp185
a(F0.154
F30.60748033953132
tp186
a(F0.148
F32.89205943286652
tp187
a(F58.223
F17.782041107362602
tp188
a(F0.14
F33.13974302349379
tp189
a(F3.111
F31.96890484035248
tp190
a(F10.024
F29.325976688123774
tp191
a(F0.141
F27.824286069604568
tp192
a(F34.97
F20.538305066118483
tp193
a(F3.162
F18.117229408759158
tp194
a(F0.828
F24.690536226083836
tp195
a(F0.171
F34.58937602565857
tp196
a(F45.271
F16.799609193694778
tp197
a(F0.178
F27.25300474173855
tp198
a(F9.945
F21.32910166226793
tp199
a(F0.118
F32.705305914219934
tp200
a(F0.41
F17.43614332191646
tp201
a(F57.074
F18.728789653215145
tp202
a(F63.861
F15.375706362945493
tp203
a(F0.098
F32.91355883463153
tp204
a(F0.22
F29.484203767206054
tp205
a(F0.41
F25.791132947953884
tp206
a(F0.455
F18.190383458975703
tp207
a(F0.096
F31.173670838819817
tp208
a(F0.085
F32.98750885442132
tp209
a(F58.209
F16.920631861954462
tp210
a(F0.099
F31.78556426934665
tp211
a(F3.146
F34.17921566789349
tp212
a(F9.973
F28.210485029150732
tp213
a(F0.174
F27.37435410695616
tp214
a(F34.942
F20.54717620689189
tp215
a(F3.19
F19.434092695009895
tp216
a(F0.793
F25.502949699449044
tp217
a(F0.106
F33.52081154769985
tp218
a(F45.22
F14.83879825537308
tp219
a(F0.356
F24.210929708770262
tp220
a(F9.899
F22.22966898053598
tp221
a(F0.31
F34.83555172133045
tp222
a(F0.148
F19.92570289809789
tp223
a(F56.991
F9.636594509938732
tp224
a(F63.874
F11.4675489099553
tp225
a(F0.327
F34.36401194743812
tp226
a(F0.449
F24.696927530476106
tp227
a(F0.325
F30.067045653525454
tp228
a(F0.103
F17.003817470744252
tp229
a(F1.957
F33.8210861872022
tp230
a(F0.625
F33.61069902140074
tp231
a(F58.138
F10.261579021954766
tp232
a(F0.301
F33.640092505070456
tp233
a(F3.048
F34.190629913543276
tp234
a(F9.881
F30.07744832745252
tp235
a(F0.361
F27.823552042174224
tp236
a(F34.936
F16.20787307727509
tp237
a(F5.381
F16.896501016373243
tp238
a(F14.531
F23.485831459440913
tp239
a(F1.342
F34.486802322145266
tp240
a(F45.294
F15.471339285520738
tp241
a(F0.364
F25.7394934695116
tp242
a(F9.917
F21.355426091142
tp243
a(F0.332
F33.6870661911089
tp244
a(F0.132
F19.861900911134267
tp245
a(F57.016
F20.24525978898799
tp246
a(F63.888
F15.856747917144707
tp247
a(F0.315
F31.35815515916329
tp248
a(F0.354
F28.842071201358188
tp249
a(F0.381
F28.33471406582329
tp250
a(F0.112
F24.771816116659657
tp251
a(F0.337
F31.63327242322266
tp252
a(F0.354
F32.932786405576685
tp253
a(F58.138
F17.654124959617068
tp254
a(F0.343
F30.004437426710503
tp255
a(F3.045
F34.10602865368128
tp256
a(F9.893
F30.460449168948752
tp257
a(F0.357
F27.58039502167192
tp258
a(F34.892
F19.952693727063505
tp259
a(F3.106
F18.24745512767695
tp260
a(F5.242
F26.242103355522787
tp261
a(F0.322
F34.03115946696581
tp262
a(F45.218
F18.945980587755056
tp263
a(F0.154
F27.328580644803452
tp264
a(F9.96
F19.680508714169264
tp265
a(F0.14
F30.583583996805828
tp266
a(F0.32
F18.93483388277569
tp267
a(F57.008
F21.41283457344398
tp268
a(F63.867
F15.715332312345067
tp269
a(F0.151
F31.93624620166208
tp270
a(F0.181
F27.421942747033693
tp271
a(F0.153
F29.006208788836375
tp272
a(F0.3
F26.133004539317508
tp273
a(F0.318
F19.384333463933537
tp274
a(F0.098
F31.471588985354174
tp275
a(F58.158
F17.624660913503785
tp276
a(F0.094
F28.33394406779724
tp277
a(F3.104
F33.02788945292944
tp278
a(F9.925
F29.344546491554116
tp279
a(F0.092
F26.84700235143742
tp280
a(F34.869
F22.132665933164603
tp281
a(F3.18
F15.759081581662244
tp282
a(F0.737
F25.90101161779603
tp283
a(F0.076
F34.02538313315017
tp284
a(F45.189
F17.31988570636467
tp285
a(F0.148
F25.935585239135168
tp286
a(F9.932
F19.216432497946215
tp287
a(F0.093
F33.098856675657714
tp288
a(F0.36
F21.19578084323023
tp289
a(F56.961
F21.51642994219437
tp290
a(F63.862
F16.300428234259872
tp291
a(F0.107
F33.12266040673213
tp292
a(F0.143
F29.02713252576616
tp293
a(F0.104
F26.922866468841676
tp294
a(F0.332
F26.194782342597403
tp295
a(F0.358
F19.424069702022653
tp296
a(F0.073
F31.25100970487384
tp297
a(F58.208
F17.57213030426818
tp298
a(F0.073
F31.211260863086757
tp299
a(F3.099
F34.09977103452034
tp300
a(F9.919
F30.09899020874325
tp301
a(F0.1
F24.95708010400481
tp302
a(F34.873
F21.851265105583213
tp303
a(F3.726
F17.165877856642883
tp304
a(F0.74
F25.805007613946994
tp305
a(F0.074
F33.85512902215123
tp306
a(F55.966
F17.41004852919529
tp307
a(F12.091
F23.763745275015633
tp308
a(F3.326
F18.553342059503
tp309
a(F12.015
F32.6709586388121
tp310
a(F12.052
F21.32963877024927
tp311
a(F81.725
F20.48085050843656
tp312
a(F75.395
F15.095015121251345
tp313
a(F12.005
F32.31000820438688
tp314
a(F12.061
F22.419911720107
tp315
a(F12.12
F27.523658871278165
tp316
a(F12.021
F25.413240907092888
tp317
a(F11.991
F19.232208033890597
tp318
a(F12.032
F31.56536568067968
tp319
a(F12.016
F29.682614189448454
tp320
a(F68.666
F15.954935126937926
tp321
a(F12.009
F30.3723194681108
tp322
a(F10.376
F32.24801849965006
tp323
a(F3.304
F29.687518991219502
tp324
a(F12.031
F28.575696212487916
tp325
a(F51.873
F20.39952876182894
tp326
a(F10.352
F18.228660309997696
tp327
a(F12.395
F25.69060408630009
tp328
a(F12.005
F31.41455207032462
tp329
a(F13.209
F21.405184777701894
tp330
a(F58.231
F19.05155529373636
tp331
a(F63.289
F16.38485694080591
tp332
a(F58.14
F25.554615072968105
tp333
a(F58.17
F17.581866682640143
tp334
a(F109.974
F15.19051606559919
tp335
a(F9.548
F19.114925329511365
tp336
a(F58.172
F27.126991778612137
tp337
a(F58.233
F20.803686267075438
tp338
a(F58.153
F20.856924157030882
tp339
a(F58.189
F22.62544919233769
tp340
a(F58.149
F18.09402239266783
tp341
a(F58.193
F25.06469796411693
tp342
a(F58.217
F25.3546806105723
tp343
a(F58.151
F25.146568559668957
tp344
a(F56.343
F25.61841640646259
tp345
a(F63.223
F23.387984096383054
tp346
a(F58.124
F22.96273294147104
tp347
a(F23.474
F23.754439229021468
tp348
a(F56.497
F20.220083983118336
tp349
a(F58.49
F18.528548650243984
tp350
a(F58.15
F26.837012809577086
tp351
a(F45.188
F18.452542816405185
tp352
a(F0.119
F25.903174206231007
tp353
a(F9.946
F21.294549393960658
tp354
a(F0.101
F32.12744379224365
tp355
a(F0.349
F21.673807515895792
tp356
a(F56.912
F21.724845896475017
tp357
a(F63.838
F16.59103301342796
tp358
a(F0.065
F32.14498486223498
tp359
a(F0.093
F27.777269040015252
tp360
a(F0.103
F29.140026706969365
tp361
a(F0.386
F23.618189333554575
tp362
a(F0.327
F18.50171402151532
tp363
a(F0.079
F30.42912853262661
tp364
a(F0.073
F31.31555058040163
tp365
a(F58.098
F15.361083191490787
tp366
a(F3.106
F32.88333753058139
tp367
a(F9.941
F28.463574877885335
tp368
a(F0.118
F27.46004443440367
tp369
a(F34.866
F20.533334394807326
tp370
a(F3.149
F17.11996591611601
tp371
a(F0.727
F23.83874834823655
tp372
a(F0.089
F32.577498777550375
tp373
a(F43.423
F18.446505153668113
tp374
a(F3.142
F25.979215604776982
tp375
a(F8.162
F20.94768763537286
tp376
a(F3.11
F35.315456313372124
tp377
a(F3.032
F22.017739164776035
tp378
a(F55.31
F21.606512349750847
tp379
a(F62.069
F16.665724007296376
tp380
a(F3.089
F32.71659276075661
tp381
a(F3.119
F24.63074330240488
tp382
a(F3.685
F25.3890383009566
tp383
a(F3.041
F28.15995835326612
tp384
a(F3.057
F22.290094473864883
tp385
a(F3.107
F33.33729840232991
tp386
a(F3.091
F34.8455099776038
tp387
a(F56.347
F17.588323759497143
tp388
a(F3.081
F34.41555063647684
tp389
a(F8.156
F29.019533596059773
tp390
a(F3.118
F27.150036216771696
tp391
a(F33.117
F22.33179227670189
tp392
a(F0.142
F19.30408165262391
tp393
a(F3.488
F24.70085034078608
tp394
a(F3.145
F35.88761134049855
tp395
a(F50.276
F17.785905724258296
tp396
a(F9.956
F24.015970456680016
tp397
a(F0.081
F17.200371233280748
tp398
a(F10.051
F35.48588034084865
tp399
a(F9.859
F16.149109991134278
tp400
a(F61.902
F20.71023573136578
tp401
a(F68.941
F16.64130235183984
tp402
a(F9.912
F28.18232869465525
tp403
a(F10.025
F25.458244390120463
tp404
a(F9.948
F26.63870084964271
tp405
a(F9.866
F26.9714549293455
tp406
a(F9.853
F20.260625270927058
tp407
a(F9.905
F33.2322222912418
tp408
a(F9.88
F34.06096809503755
tp409
a(F63.217
F16.627844233797596
tp410
a(F9.921
F33.941164722732665
tp411
a(F8.175
F32.35342340883134
tp412
a(F9.917
F30.040133802020655
tp413
a(F39.929
F21.364193453919142
tp414
a(F8.213
F17.43736897774839
tp415
a(F10.311
F26.73985398739863
tp416
a(F9.937
F34.245917486758636
tp417
a(F45.183
F12.274173975301286
tp418
a(F0.179
F24.943282383901533
tp419
a(F9.921
F19.757597863674164
tp420
a(F0.13
F33.60063100705156
tp421
a(F56.828
F8.576861645715931
tp422
a(F63.865
F10.215314301475882
tp423
a(F0.099
F32.23942002268242
tp424
a(F0.174
F26.260940454900265
tp425
a(F0.125
F29.725999879301526
tp426
a(F0.345
F23.748334783067307
tp427
a(F0.311
F19.394295152218547
tp428
a(F0.104
F30.823286358558107
tp429
a(F0.121
F30.653815286874305
tp430
a(F58.15
F9.338482299936004
tp431
a(F0.113
F31.676138866285328
tp432
a(F3.103
F30.679116041515954
tp433
a(F9.949
F21.356908212681965
tp434
a(F34.859
F13.350705190437536
tp435
a(F3.173
F19.803036184166558
tp436
a(F0.717
F18.904801859786467
tp437
a(F0.091
F33.907913164875936
tp438
a(F10.469
F19.675966185451085
tp439
a(F34.932
F21.62349721523268
tp440
a(F39.949
F19.477251610785192
tp441
a(F34.848
F28.996257832939072
tp442
a(F34.885
F20.49453905677157
tp443
a(F87.116
F18.718432537900906
tp444
a(F29.474
F17.855302426365338
tp445
a(F34.861
F31.178390303316217
tp446
a(F34.916
F21.593521550231213
tp447
a(F36.502
F23.03358756158767
tp448
a(F34.919
F24.129164594624722
tp449
a(F34.866
F17.94903075921216
tp450
a(F34.878
F28.240238897568947
tp451
a(F34.862
F27.735548681513006
tp452
a(F23.466
F20.774091870257898
tp453
a(F34.845
F28.791723633118504
tp454
a(F33.102
F27.98013785614499
tp455
a(F39.942
F24.85505667468533
tp456
a(F34.886
F26.689006692663366
tp457
a(F33.138
F19.874258362488554
tp458
a(F35.264
F23.558966273871754
tp459
a(F34.837
F30.53747029369697
tp460
a(F43.516
F18.643613243328506
tp461
a(F3.2
F26.212025376968086
tp462
a(F8.267
F20.344929657631408
tp463
a(F3.146
F27.984497326818342
tp464
a(F3.099
F21.716219825537078
tp465
a(F55.232
F18.92564967852086
tp466
a(F62.092
F15.926980319588134
tp467
a(F3.12
F30.55584340090198
tp468
a(F3.208
F26.110936314602824
tp469
a(F3.194
F27.08886239160266
tp470
a(F3.113
F27.107972730002885
tp471
a(F3.159
F20.771386127526824
tp472
a(F3.175
F30.008572370990326
tp473
a(F3.125
F29.8694045833361
tp474
a(F56.504
F17.21683346127209
tp475
a(F3.176
F29.66188226615716
tp476
a(F0.126
F28.838507745673674
tp477
a(F8.17
F27.463620875910337
tp478
a(F3.224
F28.25098108554161
tp479
a(F33.201
F21.1894156829405
tp480
a(F3.564
F26.851610858486417
tp481
a(F3.156
F29.74479451221659
tp482
a(F45.585
F19.29138315203958
tp483
a(F0.787
F26.688244230328845
tp484
a(F10.332
F17.768260632498333
tp485
a(F0.765
F34.67512490020062
tp486
a(F5.223
F22.08143335285907
tp487
a(F123.09
F22.016715868479675
tp488
a(F70.741
F16.73815674864902
tp489
a(F0.714
F34.49627696008732
tp490
a(F0.796
F28.206929135351228
tp491
a(F0.72
F25.644467854514144
tp492
a(F5.201
F26.051083749375092
tp493
a(F5.198
F16.375523464610943
tp494
a(F0.715
F30.231644176089993
tp495
a(F0.736
F28.59298411771082
tp496
a(F58.483
F14.694185220206586
tp497
a(F0.829
F31.457417499918776
tp498
a(F3.487
F33.34905302144874
tp499
a(F19.098
F28.106705141683612
tp500
a(F0.765
F28.490277166549976
tp501
a(F35.29
F21.613412417184847
tp502
a(F3.545
F16.883973591029644
tp503
a(F0.73
F35.96348375504693
tp504
a(F45.189
F18.796126620436553
tp505
a(F0.158
F27.056168144510593
tp506
a(F9.915
F18.95194276300026
tp507
a(F0.09
F30.88420778210275
tp508
a(F0.356
F19.254262021210575
tp509
a(F57.021
F21.312906551919877
tp510
a(F63.832
F16.920679089438636
tp511
a(F0.086
F32.5759635570326
tp512
a(F0.198
F28.368231093976647
tp513
a(F0.163
F28.73774936539121
tp514
a(F0.365
F24.988082146155648
tp515
a(F0.298
F20.31873316934798
tp516
a(F0.091
F31.638354778755456
tp517
a(F0.081
F30.862836134969257
tp518
a(F58.164
F15.89490226272028
tp519
a(F0.075
F30.243424368964043
tp520
a(F3.138
F31.925739423080813
tp521
a(F9.921
F30.35683988634264
tp522
a(F0.136
F27.263697316113394
tp523
a(F34.853
F22.348483083362225
tp524
a(F3.159
F17.9368181360187
tp525
a(F0.735
F26.60748884299149
tp526
a.