(lp0
(F45.203
F26.00499695893377
tp1
a(F50.307
F22.502673864457755
tp2
a(F45.174
F33.9798876516521
tp3
a(F45.165
F24.452021546927945
tp4
a(F97.082
F20.34967949582885
tp5
a(F19.234
F27.53492764895782
tp6
a(F45.238
F29.3912178831175
tp7
a(F45.259
F31.931975561752914
tp8
a(F45.201
F28.693545417673885
tp9
a(F45.231
F23.586366550717504
tp10
a(F45.195
F32.058622371498494
tp11
a(F45.192
F33.13671758547425
tp12
a(F13.201
F28.26353927347809
tp13
a(F45.164
F30.59220829140395
tp14
a(F43.429
F33.60740820877254
tp15
a(F50.258
F32.447448558546604
tp16
a(F45.193
F26.932041716668756
tp17
a(F10.481
F30.556837012339383
tp18
a(F43.497
F23.222980801016092
tp19
a(F45.614
F29.16502990014851
tp20
a(F45.192
F30.110728300642222
tp21
a(F45.179
F25.38217791068283
tp22
a(F10.249
F24.63686346798204
tp23
a(F0.134
F39.231959254170455
tp24
a(F0.374
F26.331008937875076
tp25
a(F57.051
F26.154717311728746
tp26
a(F63.904
F23.445466204038397
tp27
a(F0.155
F31.429381998100627
tp28
a(F0.189
F33.502004651197545
tp29
a(F0.373
F29.813050406730987
tp30
a(F0.387
F23.822587355816115
tp31
a(F0.094
F36.922813097946346
tp32
a(F0.154
F38.20467550827501
tp33
a(F58.274
F25.221082886765625
tp34
a(F0.374
F38.46068100080205
tp35
a(F3.155
F40.963920885386564
tp36
a(F10.009
F38.206250087950714
tp37
a(F0.172
F26.60199338223108
tp38
a(F34.93
F28.045229619538244
tp39
a(F3.265
F24.854940667903673
tp40
a(F0.777
F28.53166853059083
tp41
a(F0.148
F40.1092394674973
tp42
a(F50.31
F25.73915643044389
tp43
a(F9.983
F29.92341003065499
tp44
a(F9.903
F37.88519091653423
tp45
a(F9.888
F25.094890708369867
tp46
a(F61.87
F26.76956636570394
tp47
a(F68.921
F22.81799408750465
tp48
a(F10.026
F30.613240264499417
tp49
a(F9.961
F36.34426224991106
tp50
a(F9.907
F31.902196315547023
tp51
a(F9.894
F23.38453911903959
tp52
a(F9.924
F37.514544087032284
tp53
a(F9.914
F39.719428412258054
tp54
a(F63.268
F24.25011220259162
tp55
a(F9.926
F36.139156967544785
tp56
a(F8.174
F38.239777364983006
tp57
a(F0.087
F36.639481582678854
tp58
a(F9.93
F33.85897042752745
tp59
a(F39.944
F27.508765540157373
tp60
a(F8.214
F25.588005523555555
tp61
a(F10.348
F33.674961228854954
tp62
a(F11.509
F39.24246366673078
tp63
a(F45.147
F25.24431934293646
tp64
a(F0.119
F30.941654686887677
tp65
a(F9.933
F24.41717643584483
tp66
a(F0.318
F27.385917689784296
tp67
a(F56.936
F26.22419761698693
tp68
a(F63.871
F22.45532739835863
tp69
a(F0.164
F31.94264327820677
tp70
a(F0.108
F35.181475098459764
tp71
a(F0.311
F29.539485809178306
tp72
a(F0.286
F22.544001387074015
tp73
a(F0.11
F38.17384107038379
tp74
a(F0.09
F37.610646914834014
tp75
a(F58.194
F24.343765750813944
tp76
a(F0.107
F36.46795016140319
tp77
a(F3.081
F39.7167390282624
tp78
a(F9.941
F36.267437634273215
tp79
a(F0.232
F24.93982394462308
tp80
a(F34.886
F27.810799598478926
tp81
a(F3.14
F24.81263440553672
tp82
a(F0.716
F30.522766295898084
tp83
a(F0.13
F41.5655800230228
tp84
a(F45.171
F25.283332099206746
tp85
a(F0.341
F30.926093979605607
tp86
a(F9.901
F24.065688579210214
tp87
a(F0.327
F41.404631833412815
tp88
a(F56.997
F27.907513117417693
tp89
a(F63.824
F23.523135776897625
tp90
a(F0.362
F33.89197718604867
tp91
a(F0.322
F40.19512570862259
tp92
a(F0.156
F29.681575478320674
tp93
a(F0.161
F23.356070719393237
tp94
a(F0.313
F37.935141501149964
tp95
a(F0.314
F40.08736983739904
tp96
a(F58.138
F24.65376463732017
tp97
a(F0.31
F40.859913513330476
tp98
a(F3.039
F44.42778333156769
tp99
a(F9.872
F39.61125579795667
tp100
a(F0.315
F26.883875084774836
tp101
a(F34.897
F28.449691100844316
tp102
a(F3.083
F22.18207933447723
tp103
a(F5.209
F32.46302229166031
tp104
a(F0.33
F42.030818722077775
tp105
a(F57.025
F25.497006194976468
tp106
a(F61.911
F22.88702144504835
tp107
a(F57.098
F32.75818095946064
tp108
a(F57.043
F24.861310869455338
tp109
a(F115.951
F18.79361476469785
tp110
a(F56.928
F28.551019189879298
tp111
a(F57.114
F31.460002320818603
tp112
a(F57.129
F26.582185606472194
tp113
a(F57.109
F22.443026423143845
tp114
a(F57.107
F30.28259889781475
tp115
a(F57.014
F27.139492583150666
tp116
a(F110.018
F19.106658389170963
tp117
a(F57.019
F29.095828994177282
tp118
a(F55.237
F31.78263540348659
tp119
a(F61.905
F31.677606839686632
tp120
a(F56.804
F29.09159896026055
tp121
a(F86.932
F22.529390412072342
tp122
a(F55.382
F22.584969392667215
tp123
a(F57.372
F28.086211191179853
tp124
a(F57.042
F32.390975220128894
tp125
a(F19.233
F28.108812606148422
tp126
a(F63.905
F23.257226159982384
tp127
a(F68.903
F21.793918369431047
tp128
a(F63.839
F28.470826739724725
tp129
a(F63.857
F22.551796247783518
tp130
a(F115.817
F19.306159465884168
tp131
a(F63.912
F25.061334100365638
tp132
a(F63.89
F25.984768180456012
tp133
a(F63.886
F26.192959978152068
tp134
a(F63.84
F22.087260576710104
tp135
a(F63.844
F26.638157687615603
tp136
a(F63.842
F29.643869451247156
tp137
a(F9.558
F28.06505297170952
tp138
a(F63.844
F27.932597955688834
tp139
a(F62.075
F30.612092494033277
tp140
a(F68.924
F28.93233277760446
tp141
a(F63.883
F23.924784729536622
tp142
a(F29.502
F30.128182924818248
tp143
a(F62.11
F20.219507968332618
tp144
a(F64.245
F26.54334668173558
tp145
a(F63.808
F28.014083189703523
tp146
a(F45.224
F24.244821811772205
tp147
a(F0.251
F29.419636637480423
tp148
a(F10.024
F24.886382967233658
tp149
a(F0.196
F39.62746024766768
tp150
a(F0.339
F27.375011083137775
tp151
a(F71.364
F24.99671737686731
tp152
a(F63.966
F23.249377327124503
tp153
a(F0.215
F33.3772797869857
tp154
a(F0.34
F30.09864159817384
tp155
a(F0.35
F23.075361057015304
tp156
a(F0.154
F38.33633700030094
tp157
a(F0.148
F38.30507044536485
tp158
a(F58.223
F24.633144639009103
tp159
a(F0.14
F36.92179843029854
tp160
a(F3.111
F42.13315385681662
tp161
a(F10.024
F38.93901759496128
tp162
a(F0.141
F27.2247845611789
tp163
a(F34.97
F28.733743672005154
tp164
a(F3.162
F25.07828834940764
tp165
a(F0.828
F30.652427941653876
tp166
a(F0.171
F41.328210071999244
tp167
a(F45.271
F21.749500152034063
tp168
a(F0.178
F29.72505177813582
tp169
a(F9.945
F23.248987838160247
tp170
a(F0.118
F40.0988082078596
tp171
a(F0.41
F26.920370859360055
tp172
a(F63.861
F20.130280731013045
tp173
a(F0.22
F30.422161735982325
tp174
a(F0.41
F30.220171298754092
tp175
a(F0.455
F23.20496146559405
tp176
a(F0.096
F36.647157520366214
tp177
a(F0.085
F38.586534522784255
tp178
a(F58.209
F17.410940995750327
tp179
a(F0.099
F37.76671178957137
tp180
a(F3.146
F39.118418005450316
tp181
a(F9.973
F33.4546459846509
tp182
a(F0.174
F26.12696001213044
tp183
a(F34.942
F23.24166099075228
tp184
a(F3.19
F23.63717574106219
tp185
a(F0.793
F30.750409071587704
tp186
a(F0.106
F40.79043800050082
tp187
a(F45.22
F14.020217356085777
tp188
a(F0.356
F28.92651045285165
tp189
a(F9.899
F25.26123621724546
tp190
a(F0.31
F40.31636940098057
tp191
a(F0.148
F24.450013490127667
tp192
a(F56.991
F9.674190705331663
tp193
a(F63.874
F13.068355968035757
tp194
a(F0.449
F33.43678854074743
tp195
a(F0.325
F35.34090277068317
tp196
a(F0.103
F23.989758428186178
tp197
a(F1.957
F37.26832848936319
tp198
a(F0.625
F38.43841564022004
tp199
a(F58.138
F10.71540623512119
tp200
a(F0.301
F35.75668501807377
tp201
a(F3.048
F41.731585271749644
tp202
a(F9.881
F38.18685705354437
tp203
a(F0.361
F30.220050988253206
tp204
a(F34.936
F15.654578497074544
tp205
a(F5.381
F23.85279611693695
tp206
a(F14.531
F32.07146041260825
tp207
a(F1.342
F36.84278300153092
tp208
a(F45.294
F23.92949875179105
tp209
a(F0.364
F30.816398543592257
tp210
a(F9.917
F24.79012526808163
tp211
a(F0.332
F36.49594933088296
tp212
a(F0.132
F25.628028712767577
tp213
a(F57.016
F24.83818682618439
tp214
a(F63.888
F22.415278672885435
tp215
a(F0.354
F31.066207997071054
tp216
a(F0.381
F32.69138749989752
tp217
a(F0.112
F29.037786714374445
tp218
a(F0.337
F36.18128419180329
tp219
a(F0.354
F38.47089267643885
tp220
a(F58.138
F24.221541358587835
tp221
a(F0.343
F36.98905168230144
tp222
a(F3.045
F40.50734601069529
tp223
a(F9.893
F39.44565557681311
tp224
a(F0.357
F27.534353216823476
tp225
a(F34.892
F28.031383488685467
tp226
a(F3.106
F25.618267252109945
tp227
a(F5.242
F32.55526270585445
tp228
a(F0.322
F38.374363772141244
tp229
a(F45.218
F25.534501949868474
tp230
a(F0.154
F25.502310758301366
tp231
a(F9.96
F23.656166586404044
tp232
a(F0.14
F40.4157780285459
tp233
a(F0.32
F26.142554411043722
tp234
a(F57.008
F27.223744980059564
tp235
a(F63.867
F23.384598231408745
tp236
a(F0.181
F31.784275275577482
tp237
a(F0.153
F34.467266684398055
tp238
a(F0.3
F29.70776615695407
tp239
a(F0.318
F23.54157285671681
tp240
a(F0.098
F39.72354362377276
tp241
a(F58.158
F24.69474216395368
tp242
a(F0.094
F36.36841908392186
tp243
a(F3.104
F43.67214186768979
tp244
a(F9.925
F38.592857454515375
tp245
a(F0.092
F26.65413842963365
tp246
a(F34.869
F28.678990555228665
tp247
a(F3.18
F24.192813535919413
tp248
a(F0.737
F29.18089460640807
tp249
a(F0.076
F37.77563713553051
tp250
a(F45.189
F26.16493170374694
tp251
a(F0.148
F30.466256866930053
tp252
a(F9.932
F24.008116495562717
tp253
a(F0.093
F40.827926045283675
tp254
a(F0.36
F27.615051076437037
tp255
a(F56.961
F27.258033009618522
tp256
a(F63.862
F24.097223952645436
tp257
a(F0.143
F30.832583580554154
tp258
a(F0.104
F33.8185296060207
tp259
a(F0.332
F30.02134648244828
tp260
a(F0.358
F23.715382675562676
tp261
a(F0.073
F38.338793825435765
tp262
a(F58.208
F24.779969557343673
tp263
a(F0.073
F36.76139930907326
tp264
a(F3.099
F43.742156950679295
tp265
a(F9.919
F37.55410260288045
tp266
a(F0.1
F25.6195054827258
tp267
a(F34.873
F28.88471797357003
tp268
a(F3.726
F25.91825703950599
tp269
a(F0.74
F30.212202850559894
tp270
a(F0.074
F41.991392298058294
tp271
a(F55.966
F23.647882274521347
tp272
a(F12.091
F28.461360474625096
tp273
a(F3.326
F23.415325712243263
tp274
a(F12.015
F38.389724554070696
tp275
a(F12.052
F25.901072824772978
tp276
a(F81.725
F24.85655593778938
tp277
a(F75.395
F21.2062907979231
tp278
a(F12.061
F28.651585915125906
tp279
a(F12.12
F33.14878020740368
tp280
a(F12.021
F31.132142154161226
tp281
a(F11.991
F24.003165737979792
tp282
a(F12.032
F36.23611975622109
tp283
a(F12.016
F36.79597371588038
tp284
a(F68.666
F22.865310333415188
tp285
a(F12.009
F34.574511681260034
tp286
a(F10.376
F40.48991607256573
tp287
a(F3.304
F37.96590745262802
tp288
a(F12.031
F31.798460532064464
tp289
a(F51.873
F26.07773400733078
tp290
a(F10.352
F22.924461866474964
tp291
a(F12.395
F32.905113245826215
tp292
a(F12.005
F37.44208384533836
tp293
a(F13.209
F28.19293324640021
tp294
a(F58.231
F22.590867654420435
tp295
a(F63.289
F22.297202034514736
tp296
a(F58.14
F31.171434422023594
tp297
a(F58.17
F22.728342448494264
tp298
a(F109.974
F19.972201300474506
tp299
a(F9.548
F26.683793689217417
tp300
a(F58.233
F25.436895717528056
tp301
a(F58.153
F29.055204899388958
tp302
a(F58.189
F26.90607382869348
tp303
a(F58.149
F22.305320970121432
tp304
a(F58.193
F29.868583156981252
tp305
a(F58.217
F30.470896865156565
tp306
a(F58.151
F29.30783082383939
tp307
a(F56.343
F32.443212287161835
tp308
a(F63.223
F30.672722648922353
tp309
a(F58.124
F26.527645137999208
tp310
a(F23.474
F30.110521365422755
tp311
a(F56.497
F21.906185854395684
tp312
a(F58.49
F26.986093681719566
tp313
a(F58.15
F29.69052297097038
tp314
a(F45.188
F24.583114188086864
tp315
a(F0.119
F30.00917391036637
tp316
a(F9.946
F24.113616853719577
tp317
a(F0.101
F40.182440539433934
tp318
a(F0.349
F26.600957454492647
tp319
a(F56.912
F26.329259645938873
tp320
a(F63.838
F22.194923765569303
tp321
a(F0.093
F31.674437783115234
tp322
a(F0.103
F32.02913603900621
tp323
a(F0.386
F29.775531112294022
tp324
a(F0.327
F23.572964967538912
tp325
a(F0.079
F38.59693556566102
tp326
a(F0.073
F39.94630098723186
tp327
a(F58.098
F24.988922651934747
tp328
a(F3.106
F42.45919808295245
tp329
a(F9.941
F38.42274900727595
tp330
a(F0.118
F24.81390806978258
tp331
a(F34.866
F27.503242320846766
tp332
a(F3.149
F25.10953729428972
tp333
a(F0.727
F28.003128433227538
tp334
a(F0.089
F40.298041330572836
tp335
a(F43.423
F26.646491970951583
tp336
a(F3.142
F27.401976904154502
tp337
a(F8.162
F24.29985124558549
tp338
a(F3.11
F39.65772245341743
tp339
a(F3.032
F21.822321270725556
tp340
a(F55.31
F28.79584131296724
tp341
a(F62.069
F24.04866202827543
tp342
a(F3.119
F31.004940105432812
tp343
a(F3.685
F34.47447442491962
tp344
a(F3.041
F28.666118366474453
tp345
a(F3.057
F24.962187283418395
tp346
a(F3.107
F38.601893267848276
tp347
a(F3.091
F39.995109394023366
tp348
a(F56.347
F25.54991497598927
tp349
a(F3.081
F37.65376907730983
tp350
a(F8.156
F40.553439882837914
tp351
a(F3.118
F31.323021189140324
tp352
a(F33.117
F27.30494218446653
tp353
a(F0.142
F26.487718765285205
tp354
a(F3.488
F31.795079526863994
tp355
a(F3.145
F39.754307864911176
tp356
a(F50.276
F25.687419253215193
tp357
a(F9.956
F28.8887105316855
tp358
a(F0.081
F22.638671494740993
tp359
a(F10.051
F36.36064472543076
tp360
a(F9.859
F27.138283257771814
tp361
a(F61.902
F24.797657005799312
tp362
a(F68.941
F22.46161812385544
tp363
a(F10.025
F32.48169971071184
tp364
a(F9.948
F33.00026752781123
tp365
a(F9.866
F30.844704306218773
tp366
a(F9.853
F24.611620322428642
tp367
a(F9.905
F38.739495989587155
tp368
a(F9.88
F36.9470036203973
tp369
a(F63.217
F23.55660632858053
tp370
a(F9.921
F36.28568377839402
tp371
a(F8.175
F41.662396202143285
tp372
a(F9.917
F31.83568445518613
tp373
a(F39.929
F28.3864081739448
tp374
a(F8.213
F25.424671158287673
tp375
a(F10.311
F32.52020889882826
tp376
a(F9.937
F38.72974729547277
tp377
a(F45.183
F10.50348241263154
tp378
a(F0.179
F31.225558730265632
tp379
a(F9.921
F19.107471388087355
tp380
a(F0.13
F38.96520352905447
tp381
a(F0.3
F26.926442934200168
tp382
a(F56.828
F5.3826948057394475
tp383
a(F63.865
F8.005624512041157
tp384
a(F0.174
F33.563647610558704
tp385
a(F0.125
F37.297991269098766
tp386
a(F0.345
F29.655646250667896
tp387
a(F0.311
F24.228648218072273
tp388
a(F0.104
F37.57094283266501
tp389
a(F0.121
F40.290022557516664
tp390
a(F58.15
F7.778654904443432
tp391
a(F0.113
F37.91121358839287
tp392
a(F3.103
F34.7831010886214
tp393
a(F9.949
F21.521086540919814
tp394
a(F34.859
F11.747717291455377
tp395
a(F3.173
F22.151632789014414
tp396
a(F0.717
F30.44654538957402
tp397
a(F0.091
F36.1307972332632
tp398
a(F10.469
F28.03591492958367
tp399
a(F34.932
F26.383853164501488
tp400
a(F39.949
F22.794850119017063
tp401
a(F34.848
F33.209902866743505
tp402
a(F34.885
F25.843746418133378
tp403
a(F87.116
F24.175271145688992
tp404
a(F29.474
F27.513548391405493
tp405
a(F34.916
F30.055990163702518
tp406
a(F36.502
F33.633906562440096
tp407
a(F34.919
F29.2107326685451
tp408
a(F34.866
F24.349011805746706
tp409
a(F34.878
F33.595048105157915
tp410
a(F34.862
F33.59041424803436
tp411
a(F23.466
F28.965159246698022
tp412
a(F34.845
F33.97831184715032
tp413
a(F33.102
F37.976272840984166
tp414
a(F39.942
F34.64265935644507
tp415
a(F34.886
F29.532912746071815
tp416
a(F33.138
F24.742613354045897
tp417
a(F35.264
F29.670879165228044
tp418
a(F34.837
F35.20463367141783
tp419
a(F43.516
F22.345836041853406
tp420
a(F3.2
F27.756148639135063
tp421
a(F8.267
F23.31942793003355
tp422
a(F3.146
F31.96994809211733
tp423
a(F3.099
F24.530582269786724
tp424
a(F55.232
F21.669919127598405
tp425
a(F62.092
F20.66596888127522
tp426
a(F3.208
F28.707497125061657
tp427
a(F3.194
F30.727499480001054
tp428
a(F3.113
F28.950224173828385
tp429
a(F3.159
F23.8953855386577
tp430
a(F3.175
F32.36517012040489
tp431
a(F3.125
F31.58851504103782
tp432
a(F56.504
F20.697868098648122
tp433
a(F3.176
F30.292670051638897
tp434
a(F0.126
F32.81149688635308
tp435
a(F8.17
F31.740696384070013
tp436
a(F3.224
F28.777081759503254
tp437
a(F33.201
F25.064362628886904
tp438
a(F3.564
F31.035219641247142
tp439
a(F3.156
F31.214673964449993
tp440
a(F45.585
F26.58437766134739
tp441
a(F0.787
F27.036320434779757
tp442
a(F10.332
F24.93557092619853
tp443
a(F0.765
F34.10088166563461
tp444
a(F5.223
F25.187200833888102
tp445
a(F123.09
F25.359265193653602
tp446
a(F70.741
F24.043105474259292
tp447
a(F0.796
F29.000243392772973
tp448
a(F0.72
F28.191255840265917
tp449
a(F5.201
F30.15555592512505
tp450
a(F5.198
F24.333927450598114
tp451
a(F0.715
F32.80226396107011
tp452
a(F0.736
F31.608628325164318
tp453
a(F58.483
F24.955198577915628
tp454
a(F0.829
F32.9966700748644
tp455
a(F3.487
F42.63699842772136
tp456
a(F19.098
F40.049251661428976
tp457
a(F0.765
F24.94888454251405
tp458
a(F35.29
F28.999124919788706
tp459
a(F3.545
F22.94218399396373
tp460
a(F0.73
F34.906651847685374
tp461
a(F45.189
F26.256318023343656
tp462
a(F0.158
F28.957762022164058
tp463
a(F9.915
F24.926732183688067
tp464
a(F0.09
F40.17508581052111
tp465
a(F0.356
F24.267153414498484
tp466
a(F57.021
F27.62388078100048
tp467
a(F63.832
F23.442764965055343
tp468
a(F0.198
F31.388410422950983
tp469
a(F0.163
F35.028413100506775
tp470
a(F0.365
F31.049332170577888
tp471
a(F0.298
F22.330872528085653
tp472
a(F0.091
F38.30307393681935
tp473
a(F0.081
F40.449834209274165
tp474
a(F58.164
F24.400307658382438
tp475
a(F0.075
F37.42279337092557
tp476
a(F3.138
F41.645089193839915
tp477
a(F9.921
F38.702706031416625
tp478
a(F0.136
F26.717829740521584
tp479
a(F34.853
F28.87945671421899
tp480
a(F3.159
F23.64805115971037
tp481
a(F0.735
F30.125294968672097
tp482
a.